

Microchip MPLAB XC8 Assembler V2.10 build 88905656 
                                                                                               Sun May 31 15:38:26 2020

Microchip MPLAB XC8 C Compiler v2.10 (Free license) build 20190730164152 Og1 
     1                           	processor	16F15313
     2                           	opt	pw 120
     3                           	opt	flic
     4                           	psect	idataCOMMON,global,class=CODE,delta=2
     5                           	psect	stringtext1,global,class=STRCODE,delta=2
     6                           	psect	nvCOMMON,global,class=COMMON,space=1,delta=1
     7                           	psect	nvBANK0,global,class=BANK0,space=1,delta=1
     8                           	psect	cinit,global,class=CODE,merge=1,delta=2
     9                           	psect	bssCOMMON,global,class=COMMON,space=1,delta=1
    10                           	psect	dataCOMMON,global,class=COMMON,space=1,delta=1
    11                           	psect	cstackCOMMON,global,class=COMMON,space=1,delta=1
    12                           	psect	cstackBANK0,global,class=BANK0,space=1,delta=1
    13                           	psect	maintext,global,class=CODE,merge=1,split=1,delta=2
    14                           	psect	text1,local,class=CODE,merge=1,delta=2
    15                           	psect	text2,local,class=CODE,merge=1,delta=2
    16                           	psect	text3,local,class=CODE,merge=1,delta=2
    17                           	psect	text4,local,class=CODE,merge=1,delta=2
    18                           	psect	text5,local,class=CODE,merge=1,delta=2
    19                           	psect	text6,local,class=CODE,merge=1,delta=2
    20                           	psect	text7,local,class=CODE,merge=1,delta=2
    21                           	psect	text8,local,class=CODE,merge=1,delta=2
    22                           	psect	text9,local,class=CODE,merge=1,delta=2
    23                           	psect	text10,local,class=CODE,merge=1,delta=2
    24                           	psect	text11,local,class=CODE,merge=1,delta=2
    25                           	psect	text12,local,class=CODE,merge=1,delta=2
    26                           	psect	text13,local,class=CODE,merge=1,delta=2
    27                           	psect	text14,local,class=CODE,merge=1,delta=2
    28                           	psect	intentry,global,class=CODE,delta=2
    29                           	psect	text16,local,class=CODE,merge=1,delta=2
    30                           	psect	text17,local,class=CODE,merge=1,delta=2
    31                           	psect	text18,local,class=CODE,merge=1,delta=2
    32                           	psect	text19,local,class=CODE,merge=1,delta=2
    33                           	psect	text20,local,class=CODE,merge=1,delta=2
    34                           	dabs	1,0x7E,2
    35  0000                     
    36                           ; Version 2.10
    37                           ; Generated 31/07/2019 GMT
    38                           ; 
    39                           ; Copyright © 2019, Microchip Technology Inc. and its subsidiaries ("Microchip")
    40                           ; All rights reserved.
    41                           ; 
    42                           ; This software is developed by Microchip Technology Inc. and its subsidiaries ("Microch
      +                          ip").
    43                           ; 
    44                           ; Redistribution and use in source and binary forms, with or without modification, are
    45                           ; permitted provided that the following conditions are met:
    46                           ; 
    47                           ;     1. Redistributions of source code must retain the above copyright notice, this lis
      +                          t of
    48                           ;        conditions and the following disclaimer.
    49                           ; 
    50                           ;     2. Redistributions in binary form must reproduce the above copyright notice, this 
      +                          list
    51                           ;        of conditions and the following disclaimer in the documentation and/or other
    52                           ;        materials provided with the distribution.
    53                           ; 
    54                           ;     3. Microchip's name may not be used to endorse or promote products derived from th
      +                          is
    55                           ;        software without specific prior written permission.
    56                           ; 
    57                           ; THIS SOFTWARE IS PROVIDED BY MICROCHIP "AS IS" AND ANY EXPRESS OR IMPLIED WARRANTIES,
    58                           ; INCLUDING, BUT NOT LIMITED TO, THE IMPLIED WARRANTIES OF MERCHANTABILITY AND FITNESS F
      +                          OR
    59                           ; PURPOSE ARE DISCLAIMED.  IN NO EVENT SHALL MICROCHIP BE LIABLE FOR ANY DIRECT, INDIREC
      +                          T,
    60                           ; INCIDENTAL, SPECIAL, EXEMPLARY, OR CONSEQUENTIAL DAMAGES (INCLUDING BUT NOT LIMITED TO
    61                           ; PROCUREMENT OF SUBSTITUTE GOODS OR SERVICES; LOSS OF USE, DATA OR PROFITS; OR BUSINESS
    62                           ; INTERRUPTION) HOWSOEVER CAUSED AND ON ANY THEORY OF LIABILITY, WHETHER IN CONTRACT, ST
      +                          RICT
    63                           ; LIABILITY, OR TORT (INCLUDING NEGLIGENCE OR OTHERWISE) ARISING IN ANY WAY OUT OF THE U
      +                          SE OF
    64                           ; THIS SOFTWARE, EVEN IF ADVISED OF THE POSSIBILITY OF SUCH DAMAGE.
    65                           ; 
    66                           ; 
    67                           ; Code-generator required, PIC16F15313 Definitions
    68                           ; 
    69                           ; SFR Addresses
    70  0000                     	;# 
    71  0001                     	;# 
    72  0002                     	;# 
    73  0003                     	;# 
    74  0004                     	;# 
    75  0005                     	;# 
    76  0006                     	;# 
    77  0007                     	;# 
    78  0008                     	;# 
    79  0009                     	;# 
    80  000A                     	;# 
    81  000B                     	;# 
    82  000C                     	;# 
    83  0012                     	;# 
    84  0018                     	;# 
    85  009B                     	;# 
    86  009B                     	;# 
    87  009C                     	;# 
    88  009D                     	;# 
    89  009E                     	;# 
    90  009F                     	;# 
    91  0119                     	;# 
    92  0119                     	;# 
    93  0119                     	;# 
    94  011A                     	;# 
    95  011A                     	;# 
    96  011A                     	;# 
    97  011B                     	;# 
    98  011B                     	;# 
    99  011B                     	;# 
   100  011B                     	;# 
   101  011B                     	;# 
   102  011C                     	;# 
   103  011C                     	;# 
   104  011C                     	;# 
   105  011D                     	;# 
   106  011D                     	;# 
   107  011D                     	;# 
   108  011E                     	;# 
   109  011E                     	;# 
   110  011E                     	;# 
   111  011F                     	;# 
   112  011F                     	;# 
   113  011F                     	;# 
   114  011F                     	;# 
   115  011F                     	;# 
   116  018C                     	;# 
   117  018D                     	;# 
   118  018E                     	;# 
   119  018F                     	;# 
   120  0190                     	;# 
   121  0191                     	;# 
   122  0192                     	;# 
   123  020C                     	;# 
   124  020C                     	;# 
   125  020D                     	;# 
   126  020E                     	;# 
   127  020F                     	;# 
   128  020F                     	;# 
   129  0210                     	;# 
   130  0210                     	;# 
   131  0211                     	;# 
   132  0211                     	;# 
   133  028C                     	;# 
   134  028C                     	;# 
   135  028D                     	;# 
   136  028D                     	;# 
   137  028E                     	;# 
   138  028F                     	;# 
   139  0290                     	;# 
   140  0291                     	;# 
   141  030C                     	;# 
   142  030C                     	;# 
   143  030D                     	;# 
   144  030E                     	;# 
   145  030F                     	;# 
   146  0310                     	;# 
   147  0310                     	;# 
   148  0311                     	;# 
   149  0312                     	;# 
   150  0313                     	;# 
   151  0314                     	;# 
   152  0314                     	;# 
   153  0315                     	;# 
   154  0316                     	;# 
   155  0318                     	;# 
   156  0318                     	;# 
   157  0319                     	;# 
   158  031A                     	;# 
   159  031C                     	;# 
   160  031C                     	;# 
   161  031D                     	;# 
   162  031E                     	;# 
   163  038C                     	;# 
   164  038C                     	;# 
   165  038D                     	;# 
   166  038E                     	;# 
   167  058C                     	;# 
   168  058C                     	;# 
   169  058D                     	;# 
   170  058E                     	;# 
   171  058F                     	;# 
   172  058F                     	;# 
   173  0590                     	;# 
   174  0591                     	;# 
   175  0592                     	;# 
   176  0593                     	;# 
   177  059C                     	;# 
   178  059C                     	;# 
   179  059D                     	;# 
   180  059D                     	;# 
   181  059E                     	;# 
   182  059F                     	;# 
   183  060C                     	;# 
   184  060D                     	;# 
   185  060E                     	;# 
   186  060F                     	;# 
   187  0610                     	;# 
   188  0611                     	;# 
   189  0612                     	;# 
   190  0613                     	;# 
   191  0614                     	;# 
   192  070C                     	;# 
   193  070D                     	;# 
   194  070E                     	;# 
   195  070F                     	;# 
   196  0710                     	;# 
   197  0711                     	;# 
   198  0712                     	;# 
   199  0713                     	;# 
   200  0716                     	;# 
   201  0717                     	;# 
   202  0718                     	;# 
   203  0719                     	;# 
   204  071A                     	;# 
   205  071B                     	;# 
   206  071C                     	;# 
   207  071D                     	;# 
   208  0796                     	;# 
   209  0797                     	;# 
   210  0798                     	;# 
   211  0799                     	;# 
   212  079A                     	;# 
   213  079B                     	;# 
   214  080C                     	;# 
   215  080D                     	;# 
   216  080E                     	;# 
   217  080F                     	;# 
   218  0810                     	;# 
   219  0811                     	;# 
   220  0812                     	;# 
   221  0813                     	;# 
   222  0814                     	;# 
   223  081A                     	;# 
   224  081A                     	;# 
   225  081B                     	;# 
   226  081C                     	;# 
   227  081C                     	;# 
   228  081D                     	;# 
   229  081E                     	;# 
   230  081F                     	;# 
   231  088C                     	;# 
   232  088D                     	;# 
   233  088E                     	;# 
   234  088F                     	;# 
   235  0890                     	;# 
   236  0891                     	;# 
   237  0892                     	;# 
   238  0893                     	;# 
   239  0895                     	;# 
   240  0896                     	;# 
   241  090C                     	;# 
   242  090E                     	;# 
   243  090F                     	;# 
   244  091F                     	;# 
   245  098F                     	;# 
   246  098F                     	;# 
   247  0990                     	;# 
   248  0991                     	;# 
   249  0992                     	;# 
   250  0993                     	;# 
   251  1E0F                     	;# 
   252  1E10                     	;# 
   253  1E11                     	;# 
   254  1E12                     	;# 
   255  1E13                     	;# 
   256  1E14                     	;# 
   257  1E15                     	;# 
   258  1E16                     	;# 
   259  1E17                     	;# 
   260  1E18                     	;# 
   261  1E19                     	;# 
   262  1E1A                     	;# 
   263  1E1B                     	;# 
   264  1E1C                     	;# 
   265  1E1D                     	;# 
   266  1E1E                     	;# 
   267  1E1F                     	;# 
   268  1E20                     	;# 
   269  1E21                     	;# 
   270  1E22                     	;# 
   271  1E23                     	;# 
   272  1E24                     	;# 
   273  1E25                     	;# 
   274  1E26                     	;# 
   275  1E27                     	;# 
   276  1E28                     	;# 
   277  1E29                     	;# 
   278  1E2A                     	;# 
   279  1E2B                     	;# 
   280  1E2C                     	;# 
   281  1E2D                     	;# 
   282  1E2E                     	;# 
   283  1E2F                     	;# 
   284  1E30                     	;# 
   285  1E31                     	;# 
   286  1E32                     	;# 
   287  1E33                     	;# 
   288  1E34                     	;# 
   289  1E35                     	;# 
   290  1E36                     	;# 
   291  1E37                     	;# 
   292  1E8F                     	;# 
   293  1E90                     	;# 
   294  1E91                     	;# 
   295  1E92                     	;# 
   296  1E93                     	;# 
   297  1E9C                     	;# 
   298  1EA1                     	;# 
   299  1EA2                     	;# 
   300  1EB1                     	;# 
   301  1EBB                     	;# 
   302  1EBC                     	;# 
   303  1EBD                     	;# 
   304  1EBE                     	;# 
   305  1EC3                     	;# 
   306  1EC5                     	;# 
   307  1EC6                     	;# 
   308  1EC7                     	;# 
   309  1ECB                     	;# 
   310  1ECC                     	;# 
   311  1F10                     	;# 
   312  1F11                     	;# 
   313  1F12                     	;# 
   314  1F13                     	;# 
   315  1F14                     	;# 
   316  1F15                     	;# 
   317  1F38                     	;# 
   318  1F39                     	;# 
   319  1F3A                     	;# 
   320  1F3B                     	;# 
   321  1F3C                     	;# 
   322  1F3D                     	;# 
   323  1F3E                     	;# 
   324  1F3F                     	;# 
   325  1FE4                     	;# 
   326  1FE5                     	;# 
   327  1FE6                     	;# 
   328  1FE7                     	;# 
   329  1FE8                     	;# 
   330  1FE8                     	;# 
   331  1FE9                     	;# 
   332  1FEA                     	;# 
   333  1FEA                     	;# 
   334  1FEB                     	;# 
   335  1FED                     	;# 
   336  1FEE                     	;# 
   337  1FEF                     	;# 
   338  0000                     	;# 
   339  0001                     	;# 
   340  0002                     	;# 
   341  0003                     	;# 
   342  0004                     	;# 
   343  0005                     	;# 
   344  0006                     	;# 
   345  0007                     	;# 
   346  0008                     	;# 
   347  0009                     	;# 
   348  000A                     	;# 
   349  000B                     	;# 
   350  000C                     	;# 
   351  0012                     	;# 
   352  0018                     	;# 
   353  009B                     	;# 
   354  009B                     	;# 
   355  009C                     	;# 
   356  009D                     	;# 
   357  009E                     	;# 
   358  009F                     	;# 
   359  0119                     	;# 
   360  0119                     	;# 
   361  0119                     	;# 
   362  011A                     	;# 
   363  011A                     	;# 
   364  011A                     	;# 
   365  011B                     	;# 
   366  011B                     	;# 
   367  011B                     	;# 
   368  011B                     	;# 
   369  011B                     	;# 
   370  011C                     	;# 
   371  011C                     	;# 
   372  011C                     	;# 
   373  011D                     	;# 
   374  011D                     	;# 
   375  011D                     	;# 
   376  011E                     	;# 
   377  011E                     	;# 
   378  011E                     	;# 
   379  011F                     	;# 
   380  011F                     	;# 
   381  011F                     	;# 
   382  011F                     	;# 
   383  011F                     	;# 
   384  018C                     	;# 
   385  018D                     	;# 
   386  018E                     	;# 
   387  018F                     	;# 
   388  0190                     	;# 
   389  0191                     	;# 
   390  0192                     	;# 
   391  020C                     	;# 
   392  020C                     	;# 
   393  020D                     	;# 
   394  020E                     	;# 
   395  020F                     	;# 
   396  020F                     	;# 
   397  0210                     	;# 
   398  0210                     	;# 
   399  0211                     	;# 
   400  0211                     	;# 
   401  028C                     	;# 
   402  028C                     	;# 
   403  028D                     	;# 
   404  028D                     	;# 
   405  028E                     	;# 
   406  028F                     	;# 
   407  0290                     	;# 
   408  0291                     	;# 
   409  030C                     	;# 
   410  030C                     	;# 
   411  030D                     	;# 
   412  030E                     	;# 
   413  030F                     	;# 
   414  0310                     	;# 
   415  0310                     	;# 
   416  0311                     	;# 
   417  0312                     	;# 
   418  0313                     	;# 
   419  0314                     	;# 
   420  0314                     	;# 
   421  0315                     	;# 
   422  0316                     	;# 
   423  0318                     	;# 
   424  0318                     	;# 
   425  0319                     	;# 
   426  031A                     	;# 
   427  031C                     	;# 
   428  031C                     	;# 
   429  031D                     	;# 
   430  031E                     	;# 
   431  038C                     	;# 
   432  038C                     	;# 
   433  038D                     	;# 
   434  038E                     	;# 
   435  058C                     	;# 
   436  058C                     	;# 
   437  058D                     	;# 
   438  058E                     	;# 
   439  058F                     	;# 
   440  058F                     	;# 
   441  0590                     	;# 
   442  0591                     	;# 
   443  0592                     	;# 
   444  0593                     	;# 
   445  059C                     	;# 
   446  059C                     	;# 
   447  059D                     	;# 
   448  059D                     	;# 
   449  059E                     	;# 
   450  059F                     	;# 
   451  060C                     	;# 
   452  060D                     	;# 
   453  060E                     	;# 
   454  060F                     	;# 
   455  0610                     	;# 
   456  0611                     	;# 
   457  0612                     	;# 
   458  0613                     	;# 
   459  0614                     	;# 
   460  070C                     	;# 
   461  070D                     	;# 
   462  070E                     	;# 
   463  070F                     	;# 
   464  0710                     	;# 
   465  0711                     	;# 
   466  0712                     	;# 
   467  0713                     	;# 
   468  0716                     	;# 
   469  0717                     	;# 
   470  0718                     	;# 
   471  0719                     	;# 
   472  071A                     	;# 
   473  071B                     	;# 
   474  071C                     	;# 
   475  071D                     	;# 
   476  0796                     	;# 
   477  0797                     	;# 
   478  0798                     	;# 
   479  0799                     	;# 
   480  079A                     	;# 
   481  079B                     	;# 
   482  080C                     	;# 
   483  080D                     	;# 
   484  080E                     	;# 
   485  080F                     	;# 
   486  0810                     	;# 
   487  0811                     	;# 
   488  0812                     	;# 
   489  0813                     	;# 
   490  0814                     	;# 
   491  081A                     	;# 
   492  081A                     	;# 
   493  081B                     	;# 
   494  081C                     	;# 
   495  081C                     	;# 
   496  081D                     	;# 
   497  081E                     	;# 
   498  081F                     	;# 
   499  088C                     	;# 
   500  088D                     	;# 
   501  088E                     	;# 
   502  088F                     	;# 
   503  0890                     	;# 
   504  0891                     	;# 
   505  0892                     	;# 
   506  0893                     	;# 
   507  0895                     	;# 
   508  0896                     	;# 
   509  090C                     	;# 
   510  090E                     	;# 
   511  090F                     	;# 
   512  091F                     	;# 
   513  098F                     	;# 
   514  098F                     	;# 
   515  0990                     	;# 
   516  0991                     	;# 
   517  0992                     	;# 
   518  0993                     	;# 
   519  1E0F                     	;# 
   520  1E10                     	;# 
   521  1E11                     	;# 
   522  1E12                     	;# 
   523  1E13                     	;# 
   524  1E14                     	;# 
   525  1E15                     	;# 
   526  1E16                     	;# 
   527  1E17                     	;# 
   528  1E18                     	;# 
   529  1E19                     	;# 
   530  1E1A                     	;# 
   531  1E1B                     	;# 
   532  1E1C                     	;# 
   533  1E1D                     	;# 
   534  1E1E                     	;# 
   535  1E1F                     	;# 
   536  1E20                     	;# 
   537  1E21                     	;# 
   538  1E22                     	;# 
   539  1E23                     	;# 
   540  1E24                     	;# 
   541  1E25                     	;# 
   542  1E26                     	;# 
   543  1E27                     	;# 
   544  1E28                     	;# 
   545  1E29                     	;# 
   546  1E2A                     	;# 
   547  1E2B                     	;# 
   548  1E2C                     	;# 
   549  1E2D                     	;# 
   550  1E2E                     	;# 
   551  1E2F                     	;# 
   552  1E30                     	;# 
   553  1E31                     	;# 
   554  1E32                     	;# 
   555  1E33                     	;# 
   556  1E34                     	;# 
   557  1E35                     	;# 
   558  1E36                     	;# 
   559  1E37                     	;# 
   560  1E8F                     	;# 
   561  1E90                     	;# 
   562  1E91                     	;# 
   563  1E92                     	;# 
   564  1E93                     	;# 
   565  1E9C                     	;# 
   566  1EA1                     	;# 
   567  1EA2                     	;# 
   568  1EB1                     	;# 
   569  1EBB                     	;# 
   570  1EBC                     	;# 
   571  1EBD                     	;# 
   572  1EBE                     	;# 
   573  1EC3                     	;# 
   574  1EC5                     	;# 
   575  1EC6                     	;# 
   576  1EC7                     	;# 
   577  1ECB                     	;# 
   578  1ECC                     	;# 
   579  1F10                     	;# 
   580  1F11                     	;# 
   581  1F12                     	;# 
   582  1F13                     	;# 
   583  1F14                     	;# 
   584  1F15                     	;# 
   585  1F38                     	;# 
   586  1F39                     	;# 
   587  1F3A                     	;# 
   588  1F3B                     	;# 
   589  1F3C                     	;# 
   590  1F3D                     	;# 
   591  1F3E                     	;# 
   592  1F3F                     	;# 
   593  1FE4                     	;# 
   594  1FE5                     	;# 
   595  1FE6                     	;# 
   596  1FE7                     	;# 
   597  1FE8                     	;# 
   598  1FE8                     	;# 
   599  1FE9                     	;# 
   600  1FEA                     	;# 
   601  1FEA                     	;# 
   602  1FEB                     	;# 
   603  1FED                     	;# 
   604  1FEE                     	;# 
   605  1FEF                     	;# 
   606  0000                     	;# 
   607  0001                     	;# 
   608  0002                     	;# 
   609  0003                     	;# 
   610  0004                     	;# 
   611  0005                     	;# 
   612  0006                     	;# 
   613  0007                     	;# 
   614  0008                     	;# 
   615  0009                     	;# 
   616  000A                     	;# 
   617  000B                     	;# 
   618  000C                     	;# 
   619  0012                     	;# 
   620  0018                     	;# 
   621  009B                     	;# 
   622  009B                     	;# 
   623  009C                     	;# 
   624  009D                     	;# 
   625  009E                     	;# 
   626  009F                     	;# 
   627  0119                     	;# 
   628  0119                     	;# 
   629  0119                     	;# 
   630  011A                     	;# 
   631  011A                     	;# 
   632  011A                     	;# 
   633  011B                     	;# 
   634  011B                     	;# 
   635  011B                     	;# 
   636  011B                     	;# 
   637  011B                     	;# 
   638  011C                     	;# 
   639  011C                     	;# 
   640  011C                     	;# 
   641  011D                     	;# 
   642  011D                     	;# 
   643  011D                     	;# 
   644  011E                     	;# 
   645  011E                     	;# 
   646  011E                     	;# 
   647  011F                     	;# 
   648  011F                     	;# 
   649  011F                     	;# 
   650  011F                     	;# 
   651  011F                     	;# 
   652  018C                     	;# 
   653  018D                     	;# 
   654  018E                     	;# 
   655  018F                     	;# 
   656  0190                     	;# 
   657  0191                     	;# 
   658  0192                     	;# 
   659  020C                     	;# 
   660  020C                     	;# 
   661  020D                     	;# 
   662  020E                     	;# 
   663  020F                     	;# 
   664  020F                     	;# 
   665  0210                     	;# 
   666  0210                     	;# 
   667  0211                     	;# 
   668  0211                     	;# 
   669  028C                     	;# 
   670  028C                     	;# 
   671  028D                     	;# 
   672  028D                     	;# 
   673  028E                     	;# 
   674  028F                     	;# 
   675  0290                     	;# 
   676  0291                     	;# 
   677  030C                     	;# 
   678  030C                     	;# 
   679  030D                     	;# 
   680  030E                     	;# 
   681  030F                     	;# 
   682  0310                     	;# 
   683  0310                     	;# 
   684  0311                     	;# 
   685  0312                     	;# 
   686  0313                     	;# 
   687  0314                     	;# 
   688  0314                     	;# 
   689  0315                     	;# 
   690  0316                     	;# 
   691  0318                     	;# 
   692  0318                     	;# 
   693  0319                     	;# 
   694  031A                     	;# 
   695  031C                     	;# 
   696  031C                     	;# 
   697  031D                     	;# 
   698  031E                     	;# 
   699  038C                     	;# 
   700  038C                     	;# 
   701  038D                     	;# 
   702  038E                     	;# 
   703  058C                     	;# 
   704  058C                     	;# 
   705  058D                     	;# 
   706  058E                     	;# 
   707  058F                     	;# 
   708  058F                     	;# 
   709  0590                     	;# 
   710  0591                     	;# 
   711  0592                     	;# 
   712  0593                     	;# 
   713  059C                     	;# 
   714  059C                     	;# 
   715  059D                     	;# 
   716  059D                     	;# 
   717  059E                     	;# 
   718  059F                     	;# 
   719  060C                     	;# 
   720  060D                     	;# 
   721  060E                     	;# 
   722  060F                     	;# 
   723  0610                     	;# 
   724  0611                     	;# 
   725  0612                     	;# 
   726  0613                     	;# 
   727  0614                     	;# 
   728  070C                     	;# 
   729  070D                     	;# 
   730  070E                     	;# 
   731  070F                     	;# 
   732  0710                     	;# 
   733  0711                     	;# 
   734  0712                     	;# 
   735  0713                     	;# 
   736  0716                     	;# 
   737  0717                     	;# 
   738  0718                     	;# 
   739  0719                     	;# 
   740  071A                     	;# 
   741  071B                     	;# 
   742  071C                     	;# 
   743  071D                     	;# 
   744  0796                     	;# 
   745  0797                     	;# 
   746  0798                     	;# 
   747  0799                     	;# 
   748  079A                     	;# 
   749  079B                     	;# 
   750  080C                     	;# 
   751  080D                     	;# 
   752  080E                     	;# 
   753  080F                     	;# 
   754  0810                     	;# 
   755  0811                     	;# 
   756  0812                     	;# 
   757  0813                     	;# 
   758  0814                     	;# 
   759  081A                     	;# 
   760  081A                     	;# 
   761  081B                     	;# 
   762  081C                     	;# 
   763  081C                     	;# 
   764  081D                     	;# 
   765  081E                     	;# 
   766  081F                     	;# 
   767  088C                     	;# 
   768  088D                     	;# 
   769  088E                     	;# 
   770  088F                     	;# 
   771  0890                     	;# 
   772  0891                     	;# 
   773  0892                     	;# 
   774  0893                     	;# 
   775  0895                     	;# 
   776  0896                     	;# 
   777  090C                     	;# 
   778  090E                     	;# 
   779  090F                     	;# 
   780  091F                     	;# 
   781  098F                     	;# 
   782  098F                     	;# 
   783  0990                     	;# 
   784  0991                     	;# 
   785  0992                     	;# 
   786  0993                     	;# 
   787  1E0F                     	;# 
   788  1E10                     	;# 
   789  1E11                     	;# 
   790  1E12                     	;# 
   791  1E13                     	;# 
   792  1E14                     	;# 
   793  1E15                     	;# 
   794  1E16                     	;# 
   795  1E17                     	;# 
   796  1E18                     	;# 
   797  1E19                     	;# 
   798  1E1A                     	;# 
   799  1E1B                     	;# 
   800  1E1C                     	;# 
   801  1E1D                     	;# 
   802  1E1E                     	;# 
   803  1E1F                     	;# 
   804  1E20                     	;# 
   805  1E21                     	;# 
   806  1E22                     	;# 
   807  1E23                     	;# 
   808  1E24                     	;# 
   809  1E25                     	;# 
   810  1E26                     	;# 
   811  1E27                     	;# 
   812  1E28                     	;# 
   813  1E29                     	;# 
   814  1E2A                     	;# 
   815  1E2B                     	;# 
   816  1E2C                     	;# 
   817  1E2D                     	;# 
   818  1E2E                     	;# 
   819  1E2F                     	;# 
   820  1E30                     	;# 
   821  1E31                     	;# 
   822  1E32                     	;# 
   823  1E33                     	;# 
   824  1E34                     	;# 
   825  1E35                     	;# 
   826  1E36                     	;# 
   827  1E37                     	;# 
   828  1E8F                     	;# 
   829  1E90                     	;# 
   830  1E91                     	;# 
   831  1E92                     	;# 
   832  1E93                     	;# 
   833  1E9C                     	;# 
   834  1EA1                     	;# 
   835  1EA2                     	;# 
   836  1EB1                     	;# 
   837  1EBB                     	;# 
   838  1EBC                     	;# 
   839  1EBD                     	;# 
   840  1EBE                     	;# 
   841  1EC3                     	;# 
   842  1EC5                     	;# 
   843  1EC6                     	;# 
   844  1EC7                     	;# 
   845  1ECB                     	;# 
   846  1ECC                     	;# 
   847  1F10                     	;# 
   848  1F11                     	;# 
   849  1F12                     	;# 
   850  1F13                     	;# 
   851  1F14                     	;# 
   852  1F15                     	;# 
   853  1F38                     	;# 
   854  1F39                     	;# 
   855  1F3A                     	;# 
   856  1F3B                     	;# 
   857  1F3C                     	;# 
   858  1F3D                     	;# 
   859  1F3E                     	;# 
   860  1F3F                     	;# 
   861  1FE4                     	;# 
   862  1FE5                     	;# 
   863  1FE6                     	;# 
   864  1FE7                     	;# 
   865  1FE8                     	;# 
   866  1FE8                     	;# 
   867  1FE9                     	;# 
   868  1FEA                     	;# 
   869  1FEA                     	;# 
   870  1FEB                     	;# 
   871  1FED                     	;# 
   872  1FEE                     	;# 
   873  1FEF                     	;# 
   874  0000                     	;# 
   875  0001                     	;# 
   876  0002                     	;# 
   877  0003                     	;# 
   878  0004                     	;# 
   879  0005                     	;# 
   880  0006                     	;# 
   881  0007                     	;# 
   882  0008                     	;# 
   883  0009                     	;# 
   884  000A                     	;# 
   885  000B                     	;# 
   886  000C                     	;# 
   887  0012                     	;# 
   888  0018                     	;# 
   889  009B                     	;# 
   890  009B                     	;# 
   891  009C                     	;# 
   892  009D                     	;# 
   893  009E                     	;# 
   894  009F                     	;# 
   895  0119                     	;# 
   896  0119                     	;# 
   897  0119                     	;# 
   898  011A                     	;# 
   899  011A                     	;# 
   900  011A                     	;# 
   901  011B                     	;# 
   902  011B                     	;# 
   903  011B                     	;# 
   904  011B                     	;# 
   905  011B                     	;# 
   906  011C                     	;# 
   907  011C                     	;# 
   908  011C                     	;# 
   909  011D                     	;# 
   910  011D                     	;# 
   911  011D                     	;# 
   912  011E                     	;# 
   913  011E                     	;# 
   914  011E                     	;# 
   915  011F                     	;# 
   916  011F                     	;# 
   917  011F                     	;# 
   918  011F                     	;# 
   919  011F                     	;# 
   920  018C                     	;# 
   921  018D                     	;# 
   922  018E                     	;# 
   923  018F                     	;# 
   924  0190                     	;# 
   925  0191                     	;# 
   926  0192                     	;# 
   927  020C                     	;# 
   928  020C                     	;# 
   929  020D                     	;# 
   930  020E                     	;# 
   931  020F                     	;# 
   932  020F                     	;# 
   933  0210                     	;# 
   934  0210                     	;# 
   935  0211                     	;# 
   936  0211                     	;# 
   937  028C                     	;# 
   938  028C                     	;# 
   939  028D                     	;# 
   940  028D                     	;# 
   941  028E                     	;# 
   942  028F                     	;# 
   943  0290                     	;# 
   944  0291                     	;# 
   945  030C                     	;# 
   946  030C                     	;# 
   947  030D                     	;# 
   948  030E                     	;# 
   949  030F                     	;# 
   950  0310                     	;# 
   951  0310                     	;# 
   952  0311                     	;# 
   953  0312                     	;# 
   954  0313                     	;# 
   955  0314                     	;# 
   956  0314                     	;# 
   957  0315                     	;# 
   958  0316                     	;# 
   959  0318                     	;# 
   960  0318                     	;# 
   961  0319                     	;# 
   962  031A                     	;# 
   963  031C                     	;# 
   964  031C                     	;# 
   965  031D                     	;# 
   966  031E                     	;# 
   967  038C                     	;# 
   968  038C                     	;# 
   969  038D                     	;# 
   970  038E                     	;# 
   971  058C                     	;# 
   972  058C                     	;# 
   973  058D                     	;# 
   974  058E                     	;# 
   975  058F                     	;# 
   976  058F                     	;# 
   977  0590                     	;# 
   978  0591                     	;# 
   979  0592                     	;# 
   980  0593                     	;# 
   981  059C                     	;# 
   982  059C                     	;# 
   983  059D                     	;# 
   984  059D                     	;# 
   985  059E                     	;# 
   986  059F                     	;# 
   987  060C                     	;# 
   988  060D                     	;# 
   989  060E                     	;# 
   990  060F                     	;# 
   991  0610                     	;# 
   992  0611                     	;# 
   993  0612                     	;# 
   994  0613                     	;# 
   995  0614                     	;# 
   996  070C                     	;# 
   997  070D                     	;# 
   998  070E                     	;# 
   999  070F                     	;# 
  1000  0710                     	;# 
  1001  0711                     	;# 
  1002  0712                     	;# 
  1003  0713                     	;# 
  1004  0716                     	;# 
  1005  0717                     	;# 
  1006  0718                     	;# 
  1007  0719                     	;# 
  1008  071A                     	;# 
  1009  071B                     	;# 
  1010  071C                     	;# 
  1011  071D                     	;# 
  1012  0796                     	;# 
  1013  0797                     	;# 
  1014  0798                     	;# 
  1015  0799                     	;# 
  1016  079A                     	;# 
  1017  079B                     	;# 
  1018  080C                     	;# 
  1019  080D                     	;# 
  1020  080E                     	;# 
  1021  080F                     	;# 
  1022  0810                     	;# 
  1023  0811                     	;# 
  1024  0812                     	;# 
  1025  0813                     	;# 
  1026  0814                     	;# 
  1027  081A                     	;# 
  1028  081A                     	;# 
  1029  081B                     	;# 
  1030  081C                     	;# 
  1031  081C                     	;# 
  1032  081D                     	;# 
  1033  081E                     	;# 
  1034  081F                     	;# 
  1035  088C                     	;# 
  1036  088D                     	;# 
  1037  088E                     	;# 
  1038  088F                     	;# 
  1039  0890                     	;# 
  1040  0891                     	;# 
  1041  0892                     	;# 
  1042  0893                     	;# 
  1043  0895                     	;# 
  1044  0896                     	;# 
  1045  090C                     	;# 
  1046  090E                     	;# 
  1047  090F                     	;# 
  1048  091F                     	;# 
  1049  098F                     	;# 
  1050  098F                     	;# 
  1051  0990                     	;# 
  1052  0991                     	;# 
  1053  0992                     	;# 
  1054  0993                     	;# 
  1055  1E0F                     	;# 
  1056  1E10                     	;# 
  1057  1E11                     	;# 
  1058  1E12                     	;# 
  1059  1E13                     	;# 
  1060  1E14                     	;# 
  1061  1E15                     	;# 
  1062  1E16                     	;# 
  1063  1E17                     	;# 
  1064  1E18                     	;# 
  1065  1E19                     	;# 
  1066  1E1A                     	;# 
  1067  1E1B                     	;# 
  1068  1E1C                     	;# 
  1069  1E1D                     	;# 
  1070  1E1E                     	;# 
  1071  1E1F                     	;# 
  1072  1E20                     	;# 
  1073  1E21                     	;# 
  1074  1E22                     	;# 
  1075  1E23                     	;# 
  1076  1E24                     	;# 
  1077  1E25                     	;# 
  1078  1E26                     	;# 
  1079  1E27                     	;# 
  1080  1E28                     	;# 
  1081  1E29                     	;# 
  1082  1E2A                     	;# 
  1083  1E2B                     	;# 
  1084  1E2C                     	;# 
  1085  1E2D                     	;# 
  1086  1E2E                     	;# 
  1087  1E2F                     	;# 
  1088  1E30                     	;# 
  1089  1E31                     	;# 
  1090  1E32                     	;# 
  1091  1E33                     	;# 
  1092  1E34                     	;# 
  1093  1E35                     	;# 
  1094  1E36                     	;# 
  1095  1E37                     	;# 
  1096  1E8F                     	;# 
  1097  1E90                     	;# 
  1098  1E91                     	;# 
  1099  1E92                     	;# 
  1100  1E93                     	;# 
  1101  1E9C                     	;# 
  1102  1EA1                     	;# 
  1103  1EA2                     	;# 
  1104  1EB1                     	;# 
  1105  1EBB                     	;# 
  1106  1EBC                     	;# 
  1107  1EBD                     	;# 
  1108  1EBE                     	;# 
  1109  1EC3                     	;# 
  1110  1EC5                     	;# 
  1111  1EC6                     	;# 
  1112  1EC7                     	;# 
  1113  1ECB                     	;# 
  1114  1ECC                     	;# 
  1115  1F10                     	;# 
  1116  1F11                     	;# 
  1117  1F12                     	;# 
  1118  1F13                     	;# 
  1119  1F14                     	;# 
  1120  1F15                     	;# 
  1121  1F38                     	;# 
  1122  1F39                     	;# 
  1123  1F3A                     	;# 
  1124  1F3B                     	;# 
  1125  1F3C                     	;# 
  1126  1F3D                     	;# 
  1127  1F3E                     	;# 
  1128  1F3F                     	;# 
  1129  1FE4                     	;# 
  1130  1FE5                     	;# 
  1131  1FE6                     	;# 
  1132  1FE7                     	;# 
  1133  1FE8                     	;# 
  1134  1FE8                     	;# 
  1135  1FE9                     	;# 
  1136  1FEA                     	;# 
  1137  1FEA                     	;# 
  1138  1FEB                     	;# 
  1139  1FED                     	;# 
  1140  1FEE                     	;# 
  1141  1FEF                     	;# 
  1142  0000                     	;# 
  1143  0001                     	;# 
  1144  0002                     	;# 
  1145  0003                     	;# 
  1146  0004                     	;# 
  1147  0005                     	;# 
  1148  0006                     	;# 
  1149  0007                     	;# 
  1150  0008                     	;# 
  1151  0009                     	;# 
  1152  000A                     	;# 
  1153  000B                     	;# 
  1154  000C                     	;# 
  1155  0012                     	;# 
  1156  0018                     	;# 
  1157  009B                     	;# 
  1158  009B                     	;# 
  1159  009C                     	;# 
  1160  009D                     	;# 
  1161  009E                     	;# 
  1162  009F                     	;# 
  1163  0119                     	;# 
  1164  0119                     	;# 
  1165  0119                     	;# 
  1166  011A                     	;# 
  1167  011A                     	;# 
  1168  011A                     	;# 
  1169  011B                     	;# 
  1170  011B                     	;# 
  1171  011B                     	;# 
  1172  011B                     	;# 
  1173  011B                     	;# 
  1174  011C                     	;# 
  1175  011C                     	;# 
  1176  011C                     	;# 
  1177  011D                     	;# 
  1178  011D                     	;# 
  1179  011D                     	;# 
  1180  011E                     	;# 
  1181  011E                     	;# 
  1182  011E                     	;# 
  1183  011F                     	;# 
  1184  011F                     	;# 
  1185  011F                     	;# 
  1186  011F                     	;# 
  1187  011F                     	;# 
  1188  018C                     	;# 
  1189  018D                     	;# 
  1190  018E                     	;# 
  1191  018F                     	;# 
  1192  0190                     	;# 
  1193  0191                     	;# 
  1194  0192                     	;# 
  1195  020C                     	;# 
  1196  020C                     	;# 
  1197  020D                     	;# 
  1198  020E                     	;# 
  1199  020F                     	;# 
  1200  020F                     	;# 
  1201  0210                     	;# 
  1202  0210                     	;# 
  1203  0211                     	;# 
  1204  0211                     	;# 
  1205  028C                     	;# 
  1206  028C                     	;# 
  1207  028D                     	;# 
  1208  028D                     	;# 
  1209  028E                     	;# 
  1210  028F                     	;# 
  1211  0290                     	;# 
  1212  0291                     	;# 
  1213  030C                     	;# 
  1214  030C                     	;# 
  1215  030D                     	;# 
  1216  030E                     	;# 
  1217  030F                     	;# 
  1218  0310                     	;# 
  1219  0310                     	;# 
  1220  0311                     	;# 
  1221  0312                     	;# 
  1222  0313                     	;# 
  1223  0314                     	;# 
  1224  0314                     	;# 
  1225  0315                     	;# 
  1226  0316                     	;# 
  1227  0318                     	;# 
  1228  0318                     	;# 
  1229  0319                     	;# 
  1230  031A                     	;# 
  1231  031C                     	;# 
  1232  031C                     	;# 
  1233  031D                     	;# 
  1234  031E                     	;# 
  1235  038C                     	;# 
  1236  038C                     	;# 
  1237  038D                     	;# 
  1238  038E                     	;# 
  1239  058C                     	;# 
  1240  058C                     	;# 
  1241  058D                     	;# 
  1242  058E                     	;# 
  1243  058F                     	;# 
  1244  058F                     	;# 
  1245  0590                     	;# 
  1246  0591                     	;# 
  1247  0592                     	;# 
  1248  0593                     	;# 
  1249  059C                     	;# 
  1250  059C                     	;# 
  1251  059D                     	;# 
  1252  059D                     	;# 
  1253  059E                     	;# 
  1254  059F                     	;# 
  1255  060C                     	;# 
  1256  060D                     	;# 
  1257  060E                     	;# 
  1258  060F                     	;# 
  1259  0610                     	;# 
  1260  0611                     	;# 
  1261  0612                     	;# 
  1262  0613                     	;# 
  1263  0614                     	;# 
  1264  070C                     	;# 
  1265  070D                     	;# 
  1266  070E                     	;# 
  1267  070F                     	;# 
  1268  0710                     	;# 
  1269  0711                     	;# 
  1270  0712                     	;# 
  1271  0713                     	;# 
  1272  0716                     	;# 
  1273  0717                     	;# 
  1274  0718                     	;# 
  1275  0719                     	;# 
  1276  071A                     	;# 
  1277  071B                     	;# 
  1278  071C                     	;# 
  1279  071D                     	;# 
  1280  0796                     	;# 
  1281  0797                     	;# 
  1282  0798                     	;# 
  1283  0799                     	;# 
  1284  079A                     	;# 
  1285  079B                     	;# 
  1286  080C                     	;# 
  1287  080D                     	;# 
  1288  080E                     	;# 
  1289  080F                     	;# 
  1290  0810                     	;# 
  1291  0811                     	;# 
  1292  0812                     	;# 
  1293  0813                     	;# 
  1294  0814                     	;# 
  1295  081A                     	;# 
  1296  081A                     	;# 
  1297  081B                     	;# 
  1298  081C                     	;# 
  1299  081C                     	;# 
  1300  081D                     	;# 
  1301  081E                     	;# 
  1302  081F                     	;# 
  1303  088C                     	;# 
  1304  088D                     	;# 
  1305  088E                     	;# 
  1306  088F                     	;# 
  1307  0890                     	;# 
  1308  0891                     	;# 
  1309  0892                     	;# 
  1310  0893                     	;# 
  1311  0895                     	;# 
  1312  0896                     	;# 
  1313  090C                     	;# 
  1314  090E                     	;# 
  1315  090F                     	;# 
  1316  091F                     	;# 
  1317  098F                     	;# 
  1318  098F                     	;# 
  1319  0990                     	;# 
  1320  0991                     	;# 
  1321  0992                     	;# 
  1322  0993                     	;# 
  1323  1E0F                     	;# 
  1324  1E10                     	;# 
  1325  1E11                     	;# 
  1326  1E12                     	;# 
  1327  1E13                     	;# 
  1328  1E14                     	;# 
  1329  1E15                     	;# 
  1330  1E16                     	;# 
  1331  1E17                     	;# 
  1332  1E18                     	;# 
  1333  1E19                     	;# 
  1334  1E1A                     	;# 
  1335  1E1B                     	;# 
  1336  1E1C                     	;# 
  1337  1E1D                     	;# 
  1338  1E1E                     	;# 
  1339  1E1F                     	;# 
  1340  1E20                     	;# 
  1341  1E21                     	;# 
  1342  1E22                     	;# 
  1343  1E23                     	;# 
  1344  1E24                     	;# 
  1345  1E25                     	;# 
  1346  1E26                     	;# 
  1347  1E27                     	;# 
  1348  1E28                     	;# 
  1349  1E29                     	;# 
  1350  1E2A                     	;# 
  1351  1E2B                     	;# 
  1352  1E2C                     	;# 
  1353  1E2D                     	;# 
  1354  1E2E                     	;# 
  1355  1E2F                     	;# 
  1356  1E30                     	;# 
  1357  1E31                     	;# 
  1358  1E32                     	;# 
  1359  1E33                     	;# 
  1360  1E34                     	;# 
  1361  1E35                     	;# 
  1362  1E36                     	;# 
  1363  1E37                     	;# 
  1364  1E8F                     	;# 
  1365  1E90                     	;# 
  1366  1E91                     	;# 
  1367  1E92                     	;# 
  1368  1E93                     	;# 
  1369  1E9C                     	;# 
  1370  1EA1                     	;# 
  1371  1EA2                     	;# 
  1372  1EB1                     	;# 
  1373  1EBB                     	;# 
  1374  1EBC                     	;# 
  1375  1EBD                     	;# 
  1376  1EBE                     	;# 
  1377  1EC3                     	;# 
  1378  1EC5                     	;# 
  1379  1EC6                     	;# 
  1380  1EC7                     	;# 
  1381  1ECB                     	;# 
  1382  1ECC                     	;# 
  1383  1F10                     	;# 
  1384  1F11                     	;# 
  1385  1F12                     	;# 
  1386  1F13                     	;# 
  1387  1F14                     	;# 
  1388  1F15                     	;# 
  1389  1F38                     	;# 
  1390  1F39                     	;# 
  1391  1F3A                     	;# 
  1392  1F3B                     	;# 
  1393  1F3C                     	;# 
  1394  1F3D                     	;# 
  1395  1F3E                     	;# 
  1396  1F3F                     	;# 
  1397  1FE4                     	;# 
  1398  1FE5                     	;# 
  1399  1FE6                     	;# 
  1400  1FE7                     	;# 
  1401  1FE8                     	;# 
  1402  1FE8                     	;# 
  1403  1FE9                     	;# 
  1404  1FEA                     	;# 
  1405  1FEA                     	;# 
  1406  1FEB                     	;# 
  1407  1FED                     	;# 
  1408  1FEE                     	;# 
  1409  1FEF                     	;# 
  1410  0000                     	;# 
  1411  0001                     	;# 
  1412  0002                     	;# 
  1413  0003                     	;# 
  1414  0004                     	;# 
  1415  0005                     	;# 
  1416  0006                     	;# 
  1417  0007                     	;# 
  1418  0008                     	;# 
  1419  0009                     	;# 
  1420  000A                     	;# 
  1421  000B                     	;# 
  1422  000C                     	;# 
  1423  0012                     	;# 
  1424  0018                     	;# 
  1425  009B                     	;# 
  1426  009B                     	;# 
  1427  009C                     	;# 
  1428  009D                     	;# 
  1429  009E                     	;# 
  1430  009F                     	;# 
  1431  0119                     	;# 
  1432  0119                     	;# 
  1433  0119                     	;# 
  1434  011A                     	;# 
  1435  011A                     	;# 
  1436  011A                     	;# 
  1437  011B                     	;# 
  1438  011B                     	;# 
  1439  011B                     	;# 
  1440  011B                     	;# 
  1441  011B                     	;# 
  1442  011C                     	;# 
  1443  011C                     	;# 
  1444  011C                     	;# 
  1445  011D                     	;# 
  1446  011D                     	;# 
  1447  011D                     	;# 
  1448  011E                     	;# 
  1449  011E                     	;# 
  1450  011E                     	;# 
  1451  011F                     	;# 
  1452  011F                     	;# 
  1453  011F                     	;# 
  1454  011F                     	;# 
  1455  011F                     	;# 
  1456  018C                     	;# 
  1457  018D                     	;# 
  1458  018E                     	;# 
  1459  018F                     	;# 
  1460  0190                     	;# 
  1461  0191                     	;# 
  1462  0192                     	;# 
  1463  020C                     	;# 
  1464  020C                     	;# 
  1465  020D                     	;# 
  1466  020E                     	;# 
  1467  020F                     	;# 
  1468  020F                     	;# 
  1469  0210                     	;# 
  1470  0210                     	;# 
  1471  0211                     	;# 
  1472  0211                     	;# 
  1473  028C                     	;# 
  1474  028C                     	;# 
  1475  028D                     	;# 
  1476  028D                     	;# 
  1477  028E                     	;# 
  1478  028F                     	;# 
  1479  0290                     	;# 
  1480  0291                     	;# 
  1481  030C                     	;# 
  1482  030C                     	;# 
  1483  030D                     	;# 
  1484  030E                     	;# 
  1485  030F                     	;# 
  1486  0310                     	;# 
  1487  0310                     	;# 
  1488  0311                     	;# 
  1489  0312                     	;# 
  1490  0313                     	;# 
  1491  0314                     	;# 
  1492  0314                     	;# 
  1493  0315                     	;# 
  1494  0316                     	;# 
  1495  0318                     	;# 
  1496  0318                     	;# 
  1497  0319                     	;# 
  1498  031A                     	;# 
  1499  031C                     	;# 
  1500  031C                     	;# 
  1501  031D                     	;# 
  1502  031E                     	;# 
  1503  038C                     	;# 
  1504  038C                     	;# 
  1505  038D                     	;# 
  1506  038E                     	;# 
  1507  058C                     	;# 
  1508  058C                     	;# 
  1509  058D                     	;# 
  1510  058E                     	;# 
  1511  058F                     	;# 
  1512  058F                     	;# 
  1513  0590                     	;# 
  1514  0591                     	;# 
  1515  0592                     	;# 
  1516  0593                     	;# 
  1517  059C                     	;# 
  1518  059C                     	;# 
  1519  059D                     	;# 
  1520  059D                     	;# 
  1521  059E                     	;# 
  1522  059F                     	;# 
  1523  060C                     	;# 
  1524  060D                     	;# 
  1525  060E                     	;# 
  1526  060F                     	;# 
  1527  0610                     	;# 
  1528  0611                     	;# 
  1529  0612                     	;# 
  1530  0613                     	;# 
  1531  0614                     	;# 
  1532  070C                     	;# 
  1533  070D                     	;# 
  1534  070E                     	;# 
  1535  070F                     	;# 
  1536  0710                     	;# 
  1537  0711                     	;# 
  1538  0712                     	;# 
  1539  0713                     	;# 
  1540  0716                     	;# 
  1541  0717                     	;# 
  1542  0718                     	;# 
  1543  0719                     	;# 
  1544  071A                     	;# 
  1545  071B                     	;# 
  1546  071C                     	;# 
  1547  071D                     	;# 
  1548  0796                     	;# 
  1549  0797                     	;# 
  1550  0798                     	;# 
  1551  0799                     	;# 
  1552  079A                     	;# 
  1553  079B                     	;# 
  1554  080C                     	;# 
  1555  080D                     	;# 
  1556  080E                     	;# 
  1557  080F                     	;# 
  1558  0810                     	;# 
  1559  0811                     	;# 
  1560  0812                     	;# 
  1561  0813                     	;# 
  1562  0814                     	;# 
  1563  081A                     	;# 
  1564  081A                     	;# 
  1565  081B                     	;# 
  1566  081C                     	;# 
  1567  081C                     	;# 
  1568  081D                     	;# 
  1569  081E                     	;# 
  1570  081F                     	;# 
  1571  088C                     	;# 
  1572  088D                     	;# 
  1573  088E                     	;# 
  1574  088F                     	;# 
  1575  0890                     	;# 
  1576  0891                     	;# 
  1577  0892                     	;# 
  1578  0893                     	;# 
  1579  0895                     	;# 
  1580  0896                     	;# 
  1581  090C                     	;# 
  1582  090E                     	;# 
  1583  090F                     	;# 
  1584  091F                     	;# 
  1585  098F                     	;# 
  1586  098F                     	;# 
  1587  0990                     	;# 
  1588  0991                     	;# 
  1589  0992                     	;# 
  1590  0993                     	;# 
  1591  1E0F                     	;# 
  1592  1E10                     	;# 
  1593  1E11                     	;# 
  1594  1E12                     	;# 
  1595  1E13                     	;# 
  1596  1E14                     	;# 
  1597  1E15                     	;# 
  1598  1E16                     	;# 
  1599  1E17                     	;# 
  1600  1E18                     	;# 
  1601  1E19                     	;# 
  1602  1E1A                     	;# 
  1603  1E1B                     	;# 
  1604  1E1C                     	;# 
  1605  1E1D                     	;# 
  1606  1E1E                     	;# 
  1607  1E1F                     	;# 
  1608  1E20                     	;# 
  1609  1E21                     	;# 
  1610  1E22                     	;# 
  1611  1E23                     	;# 
  1612  1E24                     	;# 
  1613  1E25                     	;# 
  1614  1E26                     	;# 
  1615  1E27                     	;# 
  1616  1E28                     	;# 
  1617  1E29                     	;# 
  1618  1E2A                     	;# 
  1619  1E2B                     	;# 
  1620  1E2C                     	;# 
  1621  1E2D                     	;# 
  1622  1E2E                     	;# 
  1623  1E2F                     	;# 
  1624  1E30                     	;# 
  1625  1E31                     	;# 
  1626  1E32                     	;# 
  1627  1E33                     	;# 
  1628  1E34                     	;# 
  1629  1E35                     	;# 
  1630  1E36                     	;# 
  1631  1E37                     	;# 
  1632  1E8F                     	;# 
  1633  1E90                     	;# 
  1634  1E91                     	;# 
  1635  1E92                     	;# 
  1636  1E93                     	;# 
  1637  1E9C                     	;# 
  1638  1EA1                     	;# 
  1639  1EA2                     	;# 
  1640  1EB1                     	;# 
  1641  1EBB                     	;# 
  1642  1EBC                     	;# 
  1643  1EBD                     	;# 
  1644  1EBE                     	;# 
  1645  1EC3                     	;# 
  1646  1EC5                     	;# 
  1647  1EC6                     	;# 
  1648  1EC7                     	;# 
  1649  1ECB                     	;# 
  1650  1ECC                     	;# 
  1651  1F10                     	;# 
  1652  1F11                     	;# 
  1653  1F12                     	;# 
  1654  1F13                     	;# 
  1655  1F14                     	;# 
  1656  1F15                     	;# 
  1657  1F38                     	;# 
  1658  1F39                     	;# 
  1659  1F3A                     	;# 
  1660  1F3B                     	;# 
  1661  1F3C                     	;# 
  1662  1F3D                     	;# 
  1663  1F3E                     	;# 
  1664  1F3F                     	;# 
  1665  1FE4                     	;# 
  1666  1FE5                     	;# 
  1667  1FE6                     	;# 
  1668  1FE7                     	;# 
  1669  1FE8                     	;# 
  1670  1FE8                     	;# 
  1671  1FE9                     	;# 
  1672  1FEA                     	;# 
  1673  1FEA                     	;# 
  1674  1FEB                     	;# 
  1675  1FED                     	;# 
  1676  1FEE                     	;# 
  1677  1FEF                     	;# 
  1678  0000                     	;# 
  1679  0001                     	;# 
  1680  0002                     	;# 
  1681  0003                     	;# 
  1682  0004                     	;# 
  1683  0005                     	;# 
  1684  0006                     	;# 
  1685  0007                     	;# 
  1686  0008                     	;# 
  1687  0009                     	;# 
  1688  000A                     	;# 
  1689  000B                     	;# 
  1690  000C                     	;# 
  1691  0012                     	;# 
  1692  0018                     	;# 
  1693  009B                     	;# 
  1694  009B                     	;# 
  1695  009C                     	;# 
  1696  009D                     	;# 
  1697  009E                     	;# 
  1698  009F                     	;# 
  1699  0119                     	;# 
  1700  0119                     	;# 
  1701  0119                     	;# 
  1702  011A                     	;# 
  1703  011A                     	;# 
  1704  011A                     	;# 
  1705  011B                     	;# 
  1706  011B                     	;# 
  1707  011B                     	;# 
  1708  011B                     	;# 
  1709  011B                     	;# 
  1710  011C                     	;# 
  1711  011C                     	;# 
  1712  011C                     	;# 
  1713  011D                     	;# 
  1714  011D                     	;# 
  1715  011D                     	;# 
  1716  011E                     	;# 
  1717  011E                     	;# 
  1718  011E                     	;# 
  1719  011F                     	;# 
  1720  011F                     	;# 
  1721  011F                     	;# 
  1722  011F                     	;# 
  1723  011F                     	;# 
  1724  018C                     	;# 
  1725  018D                     	;# 
  1726  018E                     	;# 
  1727  018F                     	;# 
  1728  0190                     	;# 
  1729  0191                     	;# 
  1730  0192                     	;# 
  1731  020C                     	;# 
  1732  020C                     	;# 
  1733  020D                     	;# 
  1734  020E                     	;# 
  1735  020F                     	;# 
  1736  020F                     	;# 
  1737  0210                     	;# 
  1738  0210                     	;# 
  1739  0211                     	;# 
  1740  0211                     	;# 
  1741  028C                     	;# 
  1742  028C                     	;# 
  1743  028D                     	;# 
  1744  028D                     	;# 
  1745  028E                     	;# 
  1746  028F                     	;# 
  1747  0290                     	;# 
  1748  0291                     	;# 
  1749  030C                     	;# 
  1750  030C                     	;# 
  1751  030D                     	;# 
  1752  030E                     	;# 
  1753  030F                     	;# 
  1754  0310                     	;# 
  1755  0310                     	;# 
  1756  0311                     	;# 
  1757  0312                     	;# 
  1758  0313                     	;# 
  1759  0314                     	;# 
  1760  0314                     	;# 
  1761  0315                     	;# 
  1762  0316                     	;# 
  1763  0318                     	;# 
  1764  0318                     	;# 
  1765  0319                     	;# 
  1766  031A                     	;# 
  1767  031C                     	;# 
  1768  031C                     	;# 
  1769  031D                     	;# 
  1770  031E                     	;# 
  1771  038C                     	;# 
  1772  038C                     	;# 
  1773  038D                     	;# 
  1774  038E                     	;# 
  1775  058C                     	;# 
  1776  058C                     	;# 
  1777  058D                     	;# 
  1778  058E                     	;# 
  1779  058F                     	;# 
  1780  058F                     	;# 
  1781  0590                     	;# 
  1782  0591                     	;# 
  1783  0592                     	;# 
  1784  0593                     	;# 
  1785  059C                     	;# 
  1786  059C                     	;# 
  1787  059D                     	;# 
  1788  059D                     	;# 
  1789  059E                     	;# 
  1790  059F                     	;# 
  1791  060C                     	;# 
  1792  060D                     	;# 
  1793  060E                     	;# 
  1794  060F                     	;# 
  1795  0610                     	;# 
  1796  0611                     	;# 
  1797  0612                     	;# 
  1798  0613                     	;# 
  1799  0614                     	;# 
  1800  070C                     	;# 
  1801  070D                     	;# 
  1802  070E                     	;# 
  1803  070F                     	;# 
  1804  0710                     	;# 
  1805  0711                     	;# 
  1806  0712                     	;# 
  1807  0713                     	;# 
  1808  0716                     	;# 
  1809  0717                     	;# 
  1810  0718                     	;# 
  1811  0719                     	;# 
  1812  071A                     	;# 
  1813  071B                     	;# 
  1814  071C                     	;# 
  1815  071D                     	;# 
  1816  0796                     	;# 
  1817  0797                     	;# 
  1818  0798                     	;# 
  1819  0799                     	;# 
  1820  079A                     	;# 
  1821  079B                     	;# 
  1822  080C                     	;# 
  1823  080D                     	;# 
  1824  080E                     	;# 
  1825  080F                     	;# 
  1826  0810                     	;# 
  1827  0811                     	;# 
  1828  0812                     	;# 
  1829  0813                     	;# 
  1830  0814                     	;# 
  1831  081A                     	;# 
  1832  081A                     	;# 
  1833  081B                     	;# 
  1834  081C                     	;# 
  1835  081C                     	;# 
  1836  081D                     	;# 
  1837  081E                     	;# 
  1838  081F                     	;# 
  1839  088C                     	;# 
  1840  088D                     	;# 
  1841  088E                     	;# 
  1842  088F                     	;# 
  1843  0890                     	;# 
  1844  0891                     	;# 
  1845  0892                     	;# 
  1846  0893                     	;# 
  1847  0895                     	;# 
  1848  0896                     	;# 
  1849  090C                     	;# 
  1850  090E                     	;# 
  1851  090F                     	;# 
  1852  091F                     	;# 
  1853  098F                     	;# 
  1854  098F                     	;# 
  1855  0990                     	;# 
  1856  0991                     	;# 
  1857  0992                     	;# 
  1858  0993                     	;# 
  1859  1E0F                     	;# 
  1860  1E10                     	;# 
  1861  1E11                     	;# 
  1862  1E12                     	;# 
  1863  1E13                     	;# 
  1864  1E14                     	;# 
  1865  1E15                     	;# 
  1866  1E16                     	;# 
  1867  1E17                     	;# 
  1868  1E18                     	;# 
  1869  1E19                     	;# 
  1870  1E1A                     	;# 
  1871  1E1B                     	;# 
  1872  1E1C                     	;# 
  1873  1E1D                     	;# 
  1874  1E1E                     	;# 
  1875  1E1F                     	;# 
  1876  1E20                     	;# 
  1877  1E21                     	;# 
  1878  1E22                     	;# 
  1879  1E23                     	;# 
  1880  1E24                     	;# 
  1881  1E25                     	;# 
  1882  1E26                     	;# 
  1883  1E27                     	;# 
  1884  1E28                     	;# 
  1885  1E29                     	;# 
  1886  1E2A                     	;# 
  1887  1E2B                     	;# 
  1888  1E2C                     	;# 
  1889  1E2D                     	;# 
  1890  1E2E                     	;# 
  1891  1E2F                     	;# 
  1892  1E30                     	;# 
  1893  1E31                     	;# 
  1894  1E32                     	;# 
  1895  1E33                     	;# 
  1896  1E34                     	;# 
  1897  1E35                     	;# 
  1898  1E36                     	;# 
  1899  1E37                     	;# 
  1900  1E8F                     	;# 
  1901  1E90                     	;# 
  1902  1E91                     	;# 
  1903  1E92                     	;# 
  1904  1E93                     	;# 
  1905  1E9C                     	;# 
  1906  1EA1                     	;# 
  1907  1EA2                     	;# 
  1908  1EB1                     	;# 
  1909  1EBB                     	;# 
  1910  1EBC                     	;# 
  1911  1EBD                     	;# 
  1912  1EBE                     	;# 
  1913  1EC3                     	;# 
  1914  1EC5                     	;# 
  1915  1EC6                     	;# 
  1916  1EC7                     	;# 
  1917  1ECB                     	;# 
  1918  1ECC                     	;# 
  1919  1F10                     	;# 
  1920  1F11                     	;# 
  1921  1F12                     	;# 
  1922  1F13                     	;# 
  1923  1F14                     	;# 
  1924  1F15                     	;# 
  1925  1F38                     	;# 
  1926  1F39                     	;# 
  1927  1F3A                     	;# 
  1928  1F3B                     	;# 
  1929  1F3C                     	;# 
  1930  1F3D                     	;# 
  1931  1F3E                     	;# 
  1932  1F3F                     	;# 
  1933  1FE4                     	;# 
  1934  1FE5                     	;# 
  1935  1FE6                     	;# 
  1936  1FE7                     	;# 
  1937  1FE8                     	;# 
  1938  1FE8                     	;# 
  1939  1FE9                     	;# 
  1940  1FEA                     	;# 
  1941  1FEA                     	;# 
  1942  1FEB                     	;# 
  1943  1FED                     	;# 
  1944  1FEE                     	;# 
  1945  1FEF                     	;# 
  1946  0000                     	;# 
  1947  0001                     	;# 
  1948  0002                     	;# 
  1949  0003                     	;# 
  1950  0004                     	;# 
  1951  0005                     	;# 
  1952  0006                     	;# 
  1953  0007                     	;# 
  1954  0008                     	;# 
  1955  0009                     	;# 
  1956  000A                     	;# 
  1957  000B                     	;# 
  1958  000C                     	;# 
  1959  0012                     	;# 
  1960  0018                     	;# 
  1961  009B                     	;# 
  1962  009B                     	;# 
  1963  009C                     	;# 
  1964  009D                     	;# 
  1965  009E                     	;# 
  1966  009F                     	;# 
  1967  0119                     	;# 
  1968  0119                     	;# 
  1969  0119                     	;# 
  1970  011A                     	;# 
  1971  011A                     	;# 
  1972  011A                     	;# 
  1973  011B                     	;# 
  1974  011B                     	;# 
  1975  011B                     	;# 
  1976  011B                     	;# 
  1977  011B                     	;# 
  1978  011C                     	;# 
  1979  011C                     	;# 
  1980  011C                     	;# 
  1981  011D                     	;# 
  1982  011D                     	;# 
  1983  011D                     	;# 
  1984  011E                     	;# 
  1985  011E                     	;# 
  1986  011E                     	;# 
  1987  011F                     	;# 
  1988  011F                     	;# 
  1989  011F                     	;# 
  1990  011F                     	;# 
  1991  011F                     	;# 
  1992  018C                     	;# 
  1993  018D                     	;# 
  1994  018E                     	;# 
  1995  018F                     	;# 
  1996  0190                     	;# 
  1997  0191                     	;# 
  1998  0192                     	;# 
  1999  020C                     	;# 
  2000  020C                     	;# 
  2001  020D                     	;# 
  2002  020E                     	;# 
  2003  020F                     	;# 
  2004  020F                     	;# 
  2005  0210                     	;# 
  2006  0210                     	;# 
  2007  0211                     	;# 
  2008  0211                     	;# 
  2009  028C                     	;# 
  2010  028C                     	;# 
  2011  028D                     	;# 
  2012  028D                     	;# 
  2013  028E                     	;# 
  2014  028F                     	;# 
  2015  0290                     	;# 
  2016  0291                     	;# 
  2017  030C                     	;# 
  2018  030C                     	;# 
  2019  030D                     	;# 
  2020  030E                     	;# 
  2021  030F                     	;# 
  2022  0310                     	;# 
  2023  0310                     	;# 
  2024  0311                     	;# 
  2025  0312                     	;# 
  2026  0313                     	;# 
  2027  0314                     	;# 
  2028  0314                     	;# 
  2029  0315                     	;# 
  2030  0316                     	;# 
  2031  0318                     	;# 
  2032  0318                     	;# 
  2033  0319                     	;# 
  2034  031A                     	;# 
  2035  031C                     	;# 
  2036  031C                     	;# 
  2037  031D                     	;# 
  2038  031E                     	;# 
  2039  038C                     	;# 
  2040  038C                     	;# 
  2041  038D                     	;# 
  2042  038E                     	;# 
  2043  058C                     	;# 
  2044  058C                     	;# 
  2045  058D                     	;# 
  2046  058E                     	;# 
  2047  058F                     	;# 
  2048  058F                     	;# 
  2049  0590                     	;# 
  2050  0591                     	;# 
  2051  0592                     	;# 
  2052  0593                     	;# 
  2053  059C                     	;# 
  2054  059C                     	;# 
  2055  059D                     	;# 
  2056  059D                     	;# 
  2057  059E                     	;# 
  2058  059F                     	;# 
  2059  060C                     	;# 
  2060  060D                     	;# 
  2061  060E                     	;# 
  2062  060F                     	;# 
  2063  0610                     	;# 
  2064  0611                     	;# 
  2065  0612                     	;# 
  2066  0613                     	;# 
  2067  0614                     	;# 
  2068  070C                     	;# 
  2069  070D                     	;# 
  2070  070E                     	;# 
  2071  070F                     	;# 
  2072  0710                     	;# 
  2073  0711                     	;# 
  2074  0712                     	;# 
  2075  0713                     	;# 
  2076  0716                     	;# 
  2077  0717                     	;# 
  2078  0718                     	;# 
  2079  0719                     	;# 
  2080  071A                     	;# 
  2081  071B                     	;# 
  2082  071C                     	;# 
  2083  071D                     	;# 
  2084  0796                     	;# 
  2085  0797                     	;# 
  2086  0798                     	;# 
  2087  0799                     	;# 
  2088  079A                     	;# 
  2089  079B                     	;# 
  2090  080C                     	;# 
  2091  080D                     	;# 
  2092  080E                     	;# 
  2093  080F                     	;# 
  2094  0810                     	;# 
  2095  0811                     	;# 
  2096  0812                     	;# 
  2097  0813                     	;# 
  2098  0814                     	;# 
  2099  081A                     	;# 
  2100  081A                     	;# 
  2101  081B                     	;# 
  2102  081C                     	;# 
  2103  081C                     	;# 
  2104  081D                     	;# 
  2105  081E                     	;# 
  2106  081F                     	;# 
  2107  088C                     	;# 
  2108  088D                     	;# 
  2109  088E                     	;# 
  2110  088F                     	;# 
  2111  0890                     	;# 
  2112  0891                     	;# 
  2113  0892                     	;# 
  2114  0893                     	;# 
  2115  0895                     	;# 
  2116  0896                     	;# 
  2117  090C                     	;# 
  2118  090E                     	;# 
  2119  090F                     	;# 
  2120  091F                     	;# 
  2121  098F                     	;# 
  2122  098F                     	;# 
  2123  0990                     	;# 
  2124  0991                     	;# 
  2125  0992                     	;# 
  2126  0993                     	;# 
  2127  1E0F                     	;# 
  2128  1E10                     	;# 
  2129  1E11                     	;# 
  2130  1E12                     	;# 
  2131  1E13                     	;# 
  2132  1E14                     	;# 
  2133  1E15                     	;# 
  2134  1E16                     	;# 
  2135  1E17                     	;# 
  2136  1E18                     	;# 
  2137  1E19                     	;# 
  2138  1E1A                     	;# 
  2139  1E1B                     	;# 
  2140  1E1C                     	;# 
  2141  1E1D                     	;# 
  2142  1E1E                     	;# 
  2143  1E1F                     	;# 
  2144  1E20                     	;# 
  2145  1E21                     	;# 
  2146  1E22                     	;# 
  2147  1E23                     	;# 
  2148  1E24                     	;# 
  2149  1E25                     	;# 
  2150  1E26                     	;# 
  2151  1E27                     	;# 
  2152  1E28                     	;# 
  2153  1E29                     	;# 
  2154  1E2A                     	;# 
  2155  1E2B                     	;# 
  2156  1E2C                     	;# 
  2157  1E2D                     	;# 
  2158  1E2E                     	;# 
  2159  1E2F                     	;# 
  2160  1E30                     	;# 
  2161  1E31                     	;# 
  2162  1E32                     	;# 
  2163  1E33                     	;# 
  2164  1E34                     	;# 
  2165  1E35                     	;# 
  2166  1E36                     	;# 
  2167  1E37                     	;# 
  2168  1E8F                     	;# 
  2169  1E90                     	;# 
  2170  1E91                     	;# 
  2171  1E92                     	;# 
  2172  1E93                     	;# 
  2173  1E9C                     	;# 
  2174  1EA1                     	;# 
  2175  1EA2                     	;# 
  2176  1EB1                     	;# 
  2177  1EBB                     	;# 
  2178  1EBC                     	;# 
  2179  1EBD                     	;# 
  2180  1EBE                     	;# 
  2181  1EC3                     	;# 
  2182  1EC5                     	;# 
  2183  1EC6                     	;# 
  2184  1EC7                     	;# 
  2185  1ECB                     	;# 
  2186  1ECC                     	;# 
  2187  1F10                     	;# 
  2188  1F11                     	;# 
  2189  1F12                     	;# 
  2190  1F13                     	;# 
  2191  1F14                     	;# 
  2192  1F15                     	;# 
  2193  1F38                     	;# 
  2194  1F39                     	;# 
  2195  1F3A                     	;# 
  2196  1F3B                     	;# 
  2197  1F3C                     	;# 
  2198  1F3D                     	;# 
  2199  1F3E                     	;# 
  2200  1F3F                     	;# 
  2201  1FE4                     	;# 
  2202  1FE5                     	;# 
  2203  1FE6                     	;# 
  2204  1FE7                     	;# 
  2205  1FE8                     	;# 
  2206  1FE8                     	;# 
  2207  1FE9                     	;# 
  2208  1FEA                     	;# 
  2209  1FEA                     	;# 
  2210  1FEB                     	;# 
  2211  1FED                     	;# 
  2212  1FEE                     	;# 
  2213  1FEF                     	;# 
  2214  0000                     	;# 
  2215  0001                     	;# 
  2216  0002                     	;# 
  2217  0003                     	;# 
  2218  0004                     	;# 
  2219  0005                     	;# 
  2220  0006                     	;# 
  2221  0007                     	;# 
  2222  0008                     	;# 
  2223  0009                     	;# 
  2224  000A                     	;# 
  2225  000B                     	;# 
  2226  000C                     	;# 
  2227  0012                     	;# 
  2228  0018                     	;# 
  2229  009B                     	;# 
  2230  009B                     	;# 
  2231  009C                     	;# 
  2232  009D                     	;# 
  2233  009E                     	;# 
  2234  009F                     	;# 
  2235  0119                     	;# 
  2236  0119                     	;# 
  2237  0119                     	;# 
  2238  011A                     	;# 
  2239  011A                     	;# 
  2240  011A                     	;# 
  2241  011B                     	;# 
  2242  011B                     	;# 
  2243  011B                     	;# 
  2244  011B                     	;# 
  2245  011B                     	;# 
  2246  011C                     	;# 
  2247  011C                     	;# 
  2248  011C                     	;# 
  2249  011D                     	;# 
  2250  011D                     	;# 
  2251  011D                     	;# 
  2252  011E                     	;# 
  2253  011E                     	;# 
  2254  011E                     	;# 
  2255  011F                     	;# 
  2256  011F                     	;# 
  2257  011F                     	;# 
  2258  011F                     	;# 
  2259  011F                     	;# 
  2260  018C                     	;# 
  2261  018D                     	;# 
  2262  018E                     	;# 
  2263  018F                     	;# 
  2264  0190                     	;# 
  2265  0191                     	;# 
  2266  0192                     	;# 
  2267  020C                     	;# 
  2268  020C                     	;# 
  2269  020D                     	;# 
  2270  020E                     	;# 
  2271  020F                     	;# 
  2272  020F                     	;# 
  2273  0210                     	;# 
  2274  0210                     	;# 
  2275  0211                     	;# 
  2276  0211                     	;# 
  2277  028C                     	;# 
  2278  028C                     	;# 
  2279  028D                     	;# 
  2280  028D                     	;# 
  2281  028E                     	;# 
  2282  028F                     	;# 
  2283  0290                     	;# 
  2284  0291                     	;# 
  2285  030C                     	;# 
  2286  030C                     	;# 
  2287  030D                     	;# 
  2288  030E                     	;# 
  2289  030F                     	;# 
  2290  0310                     	;# 
  2291  0310                     	;# 
  2292  0311                     	;# 
  2293  0312                     	;# 
  2294  0313                     	;# 
  2295  0314                     	;# 
  2296  0314                     	;# 
  2297  0315                     	;# 
  2298  0316                     	;# 
  2299  0318                     	;# 
  2300  0318                     	;# 
  2301  0319                     	;# 
  2302  031A                     	;# 
  2303  031C                     	;# 
  2304  031C                     	;# 
  2305  031D                     	;# 
  2306  031E                     	;# 
  2307  038C                     	;# 
  2308  038C                     	;# 
  2309  038D                     	;# 
  2310  038E                     	;# 
  2311  058C                     	;# 
  2312  058C                     	;# 
  2313  058D                     	;# 
  2314  058E                     	;# 
  2315  058F                     	;# 
  2316  058F                     	;# 
  2317  0590                     	;# 
  2318  0591                     	;# 
  2319  0592                     	;# 
  2320  0593                     	;# 
  2321  059C                     	;# 
  2322  059C                     	;# 
  2323  059D                     	;# 
  2324  059D                     	;# 
  2325  059E                     	;# 
  2326  059F                     	;# 
  2327  060C                     	;# 
  2328  060D                     	;# 
  2329  060E                     	;# 
  2330  060F                     	;# 
  2331  0610                     	;# 
  2332  0611                     	;# 
  2333  0612                     	;# 
  2334  0613                     	;# 
  2335  0614                     	;# 
  2336  070C                     	;# 
  2337  070D                     	;# 
  2338  070E                     	;# 
  2339  070F                     	;# 
  2340  0710                     	;# 
  2341  0711                     	;# 
  2342  0712                     	;# 
  2343  0713                     	;# 
  2344  0716                     	;# 
  2345  0717                     	;# 
  2346  0718                     	;# 
  2347  0719                     	;# 
  2348  071A                     	;# 
  2349  071B                     	;# 
  2350  071C                     	;# 
  2351  071D                     	;# 
  2352  0796                     	;# 
  2353  0797                     	;# 
  2354  0798                     	;# 
  2355  0799                     	;# 
  2356  079A                     	;# 
  2357  079B                     	;# 
  2358  080C                     	;# 
  2359  080D                     	;# 
  2360  080E                     	;# 
  2361  080F                     	;# 
  2362  0810                     	;# 
  2363  0811                     	;# 
  2364  0812                     	;# 
  2365  0813                     	;# 
  2366  0814                     	;# 
  2367  081A                     	;# 
  2368  081A                     	;# 
  2369  081B                     	;# 
  2370  081C                     	;# 
  2371  081C                     	;# 
  2372  081D                     	;# 
  2373  081E                     	;# 
  2374  081F                     	;# 
  2375  088C                     	;# 
  2376  088D                     	;# 
  2377  088E                     	;# 
  2378  088F                     	;# 
  2379  0890                     	;# 
  2380  0891                     	;# 
  2381  0892                     	;# 
  2382  0893                     	;# 
  2383  0895                     	;# 
  2384  0896                     	;# 
  2385  090C                     	;# 
  2386  090E                     	;# 
  2387  090F                     	;# 
  2388  091F                     	;# 
  2389  098F                     	;# 
  2390  098F                     	;# 
  2391  0990                     	;# 
  2392  0991                     	;# 
  2393  0992                     	;# 
  2394  0993                     	;# 
  2395  1E0F                     	;# 
  2396  1E10                     	;# 
  2397  1E11                     	;# 
  2398  1E12                     	;# 
  2399  1E13                     	;# 
  2400  1E14                     	;# 
  2401  1E15                     	;# 
  2402  1E16                     	;# 
  2403  1E17                     	;# 
  2404  1E18                     	;# 
  2405  1E19                     	;# 
  2406  1E1A                     	;# 
  2407  1E1B                     	;# 
  2408  1E1C                     	;# 
  2409  1E1D                     	;# 
  2410  1E1E                     	;# 
  2411  1E1F                     	;# 
  2412  1E20                     	;# 
  2413  1E21                     	;# 
  2414  1E22                     	;# 
  2415  1E23                     	;# 
  2416  1E24                     	;# 
  2417  1E25                     	;# 
  2418  1E26                     	;# 
  2419  1E27                     	;# 
  2420  1E28                     	;# 
  2421  1E29                     	;# 
  2422  1E2A                     	;# 
  2423  1E2B                     	;# 
  2424  1E2C                     	;# 
  2425  1E2D                     	;# 
  2426  1E2E                     	;# 
  2427  1E2F                     	;# 
  2428  1E30                     	;# 
  2429  1E31                     	;# 
  2430  1E32                     	;# 
  2431  1E33                     	;# 
  2432  1E34                     	;# 
  2433  1E35                     	;# 
  2434  1E36                     	;# 
  2435  1E37                     	;# 
  2436  1E8F                     	;# 
  2437  1E90                     	;# 
  2438  1E91                     	;# 
  2439  1E92                     	;# 
  2440  1E93                     	;# 
  2441  1E9C                     	;# 
  2442  1EA1                     	;# 
  2443  1EA2                     	;# 
  2444  1EB1                     	;# 
  2445  1EBB                     	;# 
  2446  1EBC                     	;# 
  2447  1EBD                     	;# 
  2448  1EBE                     	;# 
  2449  1EC3                     	;# 
  2450  1EC5                     	;# 
  2451  1EC6                     	;# 
  2452  1EC7                     	;# 
  2453  1ECB                     	;# 
  2454  1ECC                     	;# 
  2455  1F10                     	;# 
  2456  1F11                     	;# 
  2457  1F12                     	;# 
  2458  1F13                     	;# 
  2459  1F14                     	;# 
  2460  1F15                     	;# 
  2461  1F38                     	;# 
  2462  1F39                     	;# 
  2463  1F3A                     	;# 
  2464  1F3B                     	;# 
  2465  1F3C                     	;# 
  2466  1F3D                     	;# 
  2467  1F3E                     	;# 
  2468  1F3F                     	;# 
  2469  1FE4                     	;# 
  2470  1FE5                     	;# 
  2471  1FE6                     	;# 
  2472  1FE7                     	;# 
  2473  1FE8                     	;# 
  2474  1FE8                     	;# 
  2475  1FE9                     	;# 
  2476  1FEA                     	;# 
  2477  1FEA                     	;# 
  2478  1FEB                     	;# 
  2479  1FED                     	;# 
  2480  1FEE                     	;# 
  2481  1FEF                     	;# 
  2482  0000                     	;# 
  2483  0001                     	;# 
  2484  0002                     	;# 
  2485  0003                     	;# 
  2486  0004                     	;# 
  2487  0005                     	;# 
  2488  0006                     	;# 
  2489  0007                     	;# 
  2490  0008                     	;# 
  2491  0009                     	;# 
  2492  000A                     	;# 
  2493  000B                     	;# 
  2494  000C                     	;# 
  2495  0012                     	;# 
  2496  0018                     	;# 
  2497  009B                     	;# 
  2498  009B                     	;# 
  2499  009C                     	;# 
  2500  009D                     	;# 
  2501  009E                     	;# 
  2502  009F                     	;# 
  2503  0119                     	;# 
  2504  0119                     	;# 
  2505  0119                     	;# 
  2506  011A                     	;# 
  2507  011A                     	;# 
  2508  011A                     	;# 
  2509  011B                     	;# 
  2510  011B                     	;# 
  2511  011B                     	;# 
  2512  011B                     	;# 
  2513  011B                     	;# 
  2514  011C                     	;# 
  2515  011C                     	;# 
  2516  011C                     	;# 
  2517  011D                     	;# 
  2518  011D                     	;# 
  2519  011D                     	;# 
  2520  011E                     	;# 
  2521  011E                     	;# 
  2522  011E                     	;# 
  2523  011F                     	;# 
  2524  011F                     	;# 
  2525  011F                     	;# 
  2526  011F                     	;# 
  2527  011F                     	;# 
  2528  018C                     	;# 
  2529  018D                     	;# 
  2530  018E                     	;# 
  2531  018F                     	;# 
  2532  0190                     	;# 
  2533  0191                     	;# 
  2534  0192                     	;# 
  2535  020C                     	;# 
  2536  020C                     	;# 
  2537  020D                     	;# 
  2538  020E                     	;# 
  2539  020F                     	;# 
  2540  020F                     	;# 
  2541  0210                     	;# 
  2542  0210                     	;# 
  2543  0211                     	;# 
  2544  0211                     	;# 
  2545  028C                     	;# 
  2546  028C                     	;# 
  2547  028D                     	;# 
  2548  028D                     	;# 
  2549  028E                     	;# 
  2550  028F                     	;# 
  2551  0290                     	;# 
  2552  0291                     	;# 
  2553  030C                     	;# 
  2554  030C                     	;# 
  2555  030D                     	;# 
  2556  030E                     	;# 
  2557  030F                     	;# 
  2558  0310                     	;# 
  2559  0310                     	;# 
  2560  0311                     	;# 
  2561  0312                     	;# 
  2562  0313                     	;# 
  2563  0314                     	;# 
  2564  0314                     	;# 
  2565  0315                     	;# 
  2566  0316                     	;# 
  2567  0318                     	;# 
  2568  0318                     	;# 
  2569  0319                     	;# 
  2570  031A                     	;# 
  2571  031C                     	;# 
  2572  031C                     	;# 
  2573  031D                     	;# 
  2574  031E                     	;# 
  2575  038C                     	;# 
  2576  038C                     	;# 
  2577  038D                     	;# 
  2578  038E                     	;# 
  2579  058C                     	;# 
  2580  058C                     	;# 
  2581  058D                     	;# 
  2582  058E                     	;# 
  2583  058F                     	;# 
  2584  058F                     	;# 
  2585  0590                     	;# 
  2586  0591                     	;# 
  2587  0592                     	;# 
  2588  0593                     	;# 
  2589  059C                     	;# 
  2590  059C                     	;# 
  2591  059D                     	;# 
  2592  059D                     	;# 
  2593  059E                     	;# 
  2594  059F                     	;# 
  2595  060C                     	;# 
  2596  060D                     	;# 
  2597  060E                     	;# 
  2598  060F                     	;# 
  2599  0610                     	;# 
  2600  0611                     	;# 
  2601  0612                     	;# 
  2602  0613                     	;# 
  2603  0614                     	;# 
  2604  070C                     	;# 
  2605  070D                     	;# 
  2606  070E                     	;# 
  2607  070F                     	;# 
  2608  0710                     	;# 
  2609  0711                     	;# 
  2610  0712                     	;# 
  2611  0713                     	;# 
  2612  0716                     	;# 
  2613  0717                     	;# 
  2614  0718                     	;# 
  2615  0719                     	;# 
  2616  071A                     	;# 
  2617  071B                     	;# 
  2618  071C                     	;# 
  2619  071D                     	;# 
  2620  0796                     	;# 
  2621  0797                     	;# 
  2622  0798                     	;# 
  2623  0799                     	;# 
  2624  079A                     	;# 
  2625  079B                     	;# 
  2626  080C                     	;# 
  2627  080D                     	;# 
  2628  080E                     	;# 
  2629  080F                     	;# 
  2630  0810                     	;# 
  2631  0811                     	;# 
  2632  0812                     	;# 
  2633  0813                     	;# 
  2634  0814                     	;# 
  2635  081A                     	;# 
  2636  081A                     	;# 
  2637  081B                     	;# 
  2638  081C                     	;# 
  2639  081C                     	;# 
  2640  081D                     	;# 
  2641  081E                     	;# 
  2642  081F                     	;# 
  2643  088C                     	;# 
  2644  088D                     	;# 
  2645  088E                     	;# 
  2646  088F                     	;# 
  2647  0890                     	;# 
  2648  0891                     	;# 
  2649  0892                     	;# 
  2650  0893                     	;# 
  2651  0895                     	;# 
  2652  0896                     	;# 
  2653  090C                     	;# 
  2654  090E                     	;# 
  2655  090F                     	;# 
  2656  091F                     	;# 
  2657  098F                     	;# 
  2658  098F                     	;# 
  2659  0990                     	;# 
  2660  0991                     	;# 
  2661  0992                     	;# 
  2662  0993                     	;# 
  2663  1E0F                     	;# 
  2664  1E10                     	;# 
  2665  1E11                     	;# 
  2666  1E12                     	;# 
  2667  1E13                     	;# 
  2668  1E14                     	;# 
  2669  1E15                     	;# 
  2670  1E16                     	;# 
  2671  1E17                     	;# 
  2672  1E18                     	;# 
  2673  1E19                     	;# 
  2674  1E1A                     	;# 
  2675  1E1B                     	;# 
  2676  1E1C                     	;# 
  2677  1E1D                     	;# 
  2678  1E1E                     	;# 
  2679  1E1F                     	;# 
  2680  1E20                     	;# 
  2681  1E21                     	;# 
  2682  1E22                     	;# 
  2683  1E23                     	;# 
  2684  1E24                     	;# 
  2685  1E25                     	;# 
  2686  1E26                     	;# 
  2687  1E27                     	;# 
  2688  1E28                     	;# 
  2689  1E29                     	;# 
  2690  1E2A                     	;# 
  2691  1E2B                     	;# 
  2692  1E2C                     	;# 
  2693  1E2D                     	;# 
  2694  1E2E                     	;# 
  2695  1E2F                     	;# 
  2696  1E30                     	;# 
  2697  1E31                     	;# 
  2698  1E32                     	;# 
  2699  1E33                     	;# 
  2700  1E34                     	;# 
  2701  1E35                     	;# 
  2702  1E36                     	;# 
  2703  1E37                     	;# 
  2704  1E8F                     	;# 
  2705  1E90                     	;# 
  2706  1E91                     	;# 
  2707  1E92                     	;# 
  2708  1E93                     	;# 
  2709  1E9C                     	;# 
  2710  1EA1                     	;# 
  2711  1EA2                     	;# 
  2712  1EB1                     	;# 
  2713  1EBB                     	;# 
  2714  1EBC                     	;# 
  2715  1EBD                     	;# 
  2716  1EBE                     	;# 
  2717  1EC3                     	;# 
  2718  1EC5                     	;# 
  2719  1EC6                     	;# 
  2720  1EC7                     	;# 
  2721  1ECB                     	;# 
  2722  1ECC                     	;# 
  2723  1F10                     	;# 
  2724  1F11                     	;# 
  2725  1F12                     	;# 
  2726  1F13                     	;# 
  2727  1F14                     	;# 
  2728  1F15                     	;# 
  2729  1F38                     	;# 
  2730  1F39                     	;# 
  2731  1F3A                     	;# 
  2732  1F3B                     	;# 
  2733  1F3C                     	;# 
  2734  1F3D                     	;# 
  2735  1F3E                     	;# 
  2736  1F3F                     	;# 
  2737  1FE4                     	;# 
  2738  1FE5                     	;# 
  2739  1FE6                     	;# 
  2740  1FE7                     	;# 
  2741  1FE8                     	;# 
  2742  1FE8                     	;# 
  2743  1FE9                     	;# 
  2744  1FEA                     	;# 
  2745  1FEA                     	;# 
  2746  1FEB                     	;# 
  2747  1FED                     	;# 
  2748  1FEE                     	;# 
  2749  1FEF                     	;# 
  2750  0000                     	;# 
  2751  0001                     	;# 
  2752  0002                     	;# 
  2753  0003                     	;# 
  2754  0004                     	;# 
  2755  0005                     	;# 
  2756  0006                     	;# 
  2757  0007                     	;# 
  2758  0008                     	;# 
  2759  0009                     	;# 
  2760  000A                     	;# 
  2761  000B                     	;# 
  2762  000C                     	;# 
  2763  0012                     	;# 
  2764  0018                     	;# 
  2765  009B                     	;# 
  2766  009B                     	;# 
  2767  009C                     	;# 
  2768  009D                     	;# 
  2769  009E                     	;# 
  2770  009F                     	;# 
  2771  0119                     	;# 
  2772  0119                     	;# 
  2773  0119                     	;# 
  2774  011A                     	;# 
  2775  011A                     	;# 
  2776  011A                     	;# 
  2777  011B                     	;# 
  2778  011B                     	;# 
  2779  011B                     	;# 
  2780  011B                     	;# 
  2781  011B                     	;# 
  2782  011C                     	;# 
  2783  011C                     	;# 
  2784  011C                     	;# 
  2785  011D                     	;# 
  2786  011D                     	;# 
  2787  011D                     	;# 
  2788  011E                     	;# 
  2789  011E                     	;# 
  2790  011E                     	;# 
  2791  011F                     	;# 
  2792  011F                     	;# 
  2793  011F                     	;# 
  2794  011F                     	;# 
  2795  011F                     	;# 
  2796  018C                     	;# 
  2797  018D                     	;# 
  2798  018E                     	;# 
  2799  018F                     	;# 
  2800  0190                     	;# 
  2801  0191                     	;# 
  2802  0192                     	;# 
  2803  020C                     	;# 
  2804  020C                     	;# 
  2805  020D                     	;# 
  2806  020E                     	;# 
  2807  020F                     	;# 
  2808  020F                     	;# 
  2809  0210                     	;# 
  2810  0210                     	;# 
  2811  0211                     	;# 
  2812  0211                     	;# 
  2813  028C                     	;# 
  2814  028C                     	;# 
  2815  028D                     	;# 
  2816  028D                     	;# 
  2817  028E                     	;# 
  2818  028F                     	;# 
  2819  0290                     	;# 
  2820  0291                     	;# 
  2821  030C                     	;# 
  2822  030C                     	;# 
  2823  030D                     	;# 
  2824  030E                     	;# 
  2825  030F                     	;# 
  2826  0310                     	;# 
  2827  0310                     	;# 
  2828  0311                     	;# 
  2829  0312                     	;# 
  2830  0313                     	;# 
  2831  0314                     	;# 
  2832  0314                     	;# 
  2833  0315                     	;# 
  2834  0316                     	;# 
  2835  0318                     	;# 
  2836  0318                     	;# 
  2837  0319                     	;# 
  2838  031A                     	;# 
  2839  031C                     	;# 
  2840  031C                     	;# 
  2841  031D                     	;# 
  2842  031E                     	;# 
  2843  038C                     	;# 
  2844  038C                     	;# 
  2845  038D                     	;# 
  2846  038E                     	;# 
  2847  058C                     	;# 
  2848  058C                     	;# 
  2849  058D                     	;# 
  2850  058E                     	;# 
  2851  058F                     	;# 
  2852  058F                     	;# 
  2853  0590                     	;# 
  2854  0591                     	;# 
  2855  0592                     	;# 
  2856  0593                     	;# 
  2857  059C                     	;# 
  2858  059C                     	;# 
  2859  059D                     	;# 
  2860  059D                     	;# 
  2861  059E                     	;# 
  2862  059F                     	;# 
  2863  060C                     	;# 
  2864  060D                     	;# 
  2865  060E                     	;# 
  2866  060F                     	;# 
  2867  0610                     	;# 
  2868  0611                     	;# 
  2869  0612                     	;# 
  2870  0613                     	;# 
  2871  0614                     	;# 
  2872  070C                     	;# 
  2873  070D                     	;# 
  2874  070E                     	;# 
  2875  070F                     	;# 
  2876  0710                     	;# 
  2877  0711                     	;# 
  2878  0712                     	;# 
  2879  0713                     	;# 
  2880  0716                     	;# 
  2881  0717                     	;# 
  2882  0718                     	;# 
  2883  0719                     	;# 
  2884  071A                     	;# 
  2885  071B                     	;# 
  2886  071C                     	;# 
  2887  071D                     	;# 
  2888  0796                     	;# 
  2889  0797                     	;# 
  2890  0798                     	;# 
  2891  0799                     	;# 
  2892  079A                     	;# 
  2893  079B                     	;# 
  2894  080C                     	;# 
  2895  080D                     	;# 
  2896  080E                     	;# 
  2897  080F                     	;# 
  2898  0810                     	;# 
  2899  0811                     	;# 
  2900  0812                     	;# 
  2901  0813                     	;# 
  2902  0814                     	;# 
  2903  081A                     	;# 
  2904  081A                     	;# 
  2905  081B                     	;# 
  2906  081C                     	;# 
  2907  081C                     	;# 
  2908  081D                     	;# 
  2909  081E                     	;# 
  2910  081F                     	;# 
  2911  088C                     	;# 
  2912  088D                     	;# 
  2913  088E                     	;# 
  2914  088F                     	;# 
  2915  0890                     	;# 
  2916  0891                     	;# 
  2917  0892                     	;# 
  2918  0893                     	;# 
  2919  0895                     	;# 
  2920  0896                     	;# 
  2921  090C                     	;# 
  2922  090E                     	;# 
  2923  090F                     	;# 
  2924  091F                     	;# 
  2925  098F                     	;# 
  2926  098F                     	;# 
  2927  0990                     	;# 
  2928  0991                     	;# 
  2929  0992                     	;# 
  2930  0993                     	;# 
  2931  1E0F                     	;# 
  2932  1E10                     	;# 
  2933  1E11                     	;# 
  2934  1E12                     	;# 
  2935  1E13                     	;# 
  2936  1E14                     	;# 
  2937  1E15                     	;# 
  2938  1E16                     	;# 
  2939  1E17                     	;# 
  2940  1E18                     	;# 
  2941  1E19                     	;# 
  2942  1E1A                     	;# 
  2943  1E1B                     	;# 
  2944  1E1C                     	;# 
  2945  1E1D                     	;# 
  2946  1E1E                     	;# 
  2947  1E1F                     	;# 
  2948  1E20                     	;# 
  2949  1E21                     	;# 
  2950  1E22                     	;# 
  2951  1E23                     	;# 
  2952  1E24                     	;# 
  2953  1E25                     	;# 
  2954  1E26                     	;# 
  2955  1E27                     	;# 
  2956  1E28                     	;# 
  2957  1E29                     	;# 
  2958  1E2A                     	;# 
  2959  1E2B                     	;# 
  2960  1E2C                     	;# 
  2961  1E2D                     	;# 
  2962  1E2E                     	;# 
  2963  1E2F                     	;# 
  2964  1E30                     	;# 
  2965  1E31                     	;# 
  2966  1E32                     	;# 
  2967  1E33                     	;# 
  2968  1E34                     	;# 
  2969  1E35                     	;# 
  2970  1E36                     	;# 
  2971  1E37                     	;# 
  2972  1E8F                     	;# 
  2973  1E90                     	;# 
  2974  1E91                     	;# 
  2975  1E92                     	;# 
  2976  1E93                     	;# 
  2977  1E9C                     	;# 
  2978  1EA1                     	;# 
  2979  1EA2                     	;# 
  2980  1EB1                     	;# 
  2981  1EBB                     	;# 
  2982  1EBC                     	;# 
  2983  1EBD                     	;# 
  2984  1EBE                     	;# 
  2985  1EC3                     	;# 
  2986  1EC5                     	;# 
  2987  1EC6                     	;# 
  2988  1EC7                     	;# 
  2989  1ECB                     	;# 
  2990  1ECC                     	;# 
  2991  1F10                     	;# 
  2992  1F11                     	;# 
  2993  1F12                     	;# 
  2994  1F13                     	;# 
  2995  1F14                     	;# 
  2996  1F15                     	;# 
  2997  1F38                     	;# 
  2998  1F39                     	;# 
  2999  1F3A                     	;# 
  3000  1F3B                     	;# 
  3001  1F3C                     	;# 
  3002  1F3D                     	;# 
  3003  1F3E                     	;# 
  3004  1F3F                     	;# 
  3005  1FE4                     	;# 
  3006  1FE5                     	;# 
  3007  1FE6                     	;# 
  3008  1FE7                     	;# 
  3009  1FE8                     	;# 
  3010  1FE8                     	;# 
  3011  1FE9                     	;# 
  3012  1FEA                     	;# 
  3013  1FEA                     	;# 
  3014  1FEB                     	;# 
  3015  1FED                     	;# 
  3016  1FEE                     	;# 
  3017  1FEF                     	;# 
  3018                           
  3019                           	psect	idataCOMMON
  3020  0194                     __pidataCOMMON:	
  3021                           
  3022                           ;initializer for _counter
  3023  0194  3401               	retlw	1
  3024  0195  3400               	retlw	0
  3025                           
  3026                           ;initializer for _idleStart
  3027  0196  3401               	retlw	1
  3028                           
  3029                           	psect	stringtext1
  3030  0190                     __pstringtext1:	
  3031  0190                     _spi1_configuration:	
  3032  0190  3425               	retlw	37
  3033  0191  3440               	retlw	64
  3034  0192  3400               	retlw	0
  3035  0193  3401               	retlw	1
  3036  0194                     __end_of_spi1_configuration:	
  3037                           
  3038                           	psect	nvCOMMON
  3039  0079                     __pnvCOMMON:	
  3040  0079                     _MSSP1_InterruptHandler:	
  3041  0079                     	ds	2
  3042                           
  3043                           	psect	nvBANK0
  3044  0020                     __pnvBANK0:	
  3045  0020                     _TMR0_InterruptHandler:	
  3046  0020                     	ds	2
  3047  000B                     _INTCONbits	set	11
  3048  0012                     _TRISAbits	set	18
  3049  0012                     _TRISA	set	18
  3050  0018                     _LATA	set	24
  3051  018C                     _SSP1BUF	set	396
  3052  0191                     _SSP1CON2	set	401
  3053  0190                     _SSP1CON1bits	set	400
  3054  018D                     _SSP1ADD	set	397
  3055  0190                     _SSP1CON1	set	400
  3056  018F                     _SSP1STAT	set	399
  3057  028D                     _PR2	set	653
  3058  028C                     _TMR2	set	652
  3059  028E                     _T2CONbits	set	654
  3060  0291                     _T2RSTbits	set	657
  3061  028F                     _T2HLTbits	set	655
  3062  028E                     _T2CON	set	654
  3063  028C                     _T2TMR	set	652
  3064  028D                     _T2PR	set	653
  3065  0291                     _T2RST	set	657
  3066  028F                     _T2HLT	set	655
  3067  0290                     _T2CLKCON	set	656
  3068  0314                     _PWM3DCL	set	788
  3069  0315                     _PWM3DCH	set	789
  3070  0316                     _PWM3CON	set	790
  3071  059E                     _T0CON0bits	set	1438
  3072  059E                     _T0CON0	set	1438
  3073  059D                     _TMR0H	set	1437
  3074  059F                     _T0CON1	set	1439
  3075  059C                     _TMR0L	set	1436
  3076  0592                     _NCO1CONbits	set	1426
  3077  058F                     _NCO1INCL	set	1423
  3078  0590                     _NCO1INCH	set	1424
  3079  0591                     _NCO1INCU	set	1425
  3080  058C                     _NCO1ACCL	set	1420
  3081  058D                     _NCO1ACCH	set	1421
  3082  058E                     _NCO1ACCU	set	1422
  3083  0593                     _NCO1CLK	set	1427
  3084  0592                     _NCO1CON	set	1426
  3085  070C                     _PIR0bits	set	1804
  3086  0716                     _PIE0bits	set	1814
  3087  070F                     _PIR3bits	set	1807
  3088  0719                     _PIE3bits	set	1817
  3089  0710                     _PIR4bits	set	1808
  3090  079B                     _PMD5	set	1947
  3091  079A                     _PMD4	set	1946
  3092  0799                     _PMD3	set	1945
  3093  0798                     _PMD2	set	1944
  3094  0797                     _PMD1	set	1943
  3095  0796                     _PMD0	set	1942
  3096  0892                     _OSCTUNE	set	2194
  3097  0890                     _OSCSTAT	set	2192
  3098  0893                     _OSCFRQ	set	2195
  3099  0891                     _OSCEN	set	2193
  3100  088F                     _OSCCON3	set	2191
  3101  088D                     _OSCCON1	set	2189
  3102  1E1A                     _CLC2CONbits	set	7706
  3103  1E1A                     _CLC2CON	set	7706
  3104  1E23                     _CLC2GLS3	set	7715
  3105  1E22                     _CLC2GLS2	set	7714
  3106  1E21                     _CLC2GLS1	set	7713
  3107  1E20                     _CLC2GLS0	set	7712
  3108  1E1F                     _CLC2SEL3	set	7711
  3109  1E1E                     _CLC2SEL2	set	7710
  3110  1E1D                     _CLC2SEL1	set	7709
  3111  1E1C                     _CLC2SEL0	set	7708
  3112  1E1B                     _CLC2POL	set	7707
  3113  1E10                     _CLC1CONbits	set	7696
  3114  1E10                     _CLC1CON	set	7696
  3115  1E19                     _CLC1GLS3	set	7705
  3116  1E18                     _CLC1GLS2	set	7704
  3117  1E17                     _CLC1GLS1	set	7703
  3118  1E16                     _CLC1GLS0	set	7702
  3119  1E15                     _CLC1SEL3	set	7701
  3120  1E14                     _CLC1SEL2	set	7700
  3121  1E13                     _CLC1SEL1	set	7699
  3122  1E12                     _CLC1SEL0	set	7698
  3123  1E11                     _CLC1POL	set	7697
  3124  1EC6                     _SSP1DATPPS	set	7878
  3125  1EBD                     _CLCIN2PPS	set	7869
  3126  1EC5                     _SSP1CLKPPS	set	7877
  3127  1F15                     _RA5PPS	set	7957
  3128  1F10                     _RA0PPS	set	7952
  3129  1F12                     _RA2PPS	set	7954
  3130  1F11                     _RA1PPS	set	7953
  3131  1F3C                     _INLVLA	set	7996
  3132  1F3B                     _SLRCONA	set	7995
  3133  1F3A                     _ODCONA	set	7994
  3134  1F39                     _WPUA	set	7993
  3135  1F38                     _ANSELA	set	7992
  3136                           
  3137                           ; #config settings
  3138  0000                     
  3139                           	psect	cinit
  3140  0028                     start_initialization:	
  3141  0028                     __initialization:	
  3142                           
  3143                           ; Initialize objects allocated to COMMON
  3144  0028  3181  2194  3180   	fcall	__pidataCOMMON	;fetch initializer
  3145  002B  00F6               	movwf	__pdataCOMMON& (0+127)
  3146  002C  3181  2195  3180   	fcall	__pidataCOMMON+1	;fetch initializer
  3147  002F  00F7               	movwf	(__pdataCOMMON+1)& (0+127)
  3148  0030  3181  2196  3180   	fcall	__pidataCOMMON+2	;fetch initializer
  3149  0033  00F8               	movwf	(__pdataCOMMON+2)& (0+127)
  3150                           
  3151                           ; Clear objects allocated to COMMON
  3152  0034  01FB               	clrf	__pbssCOMMON& (0+127)
  3153  0035                     end_of_initialization:	
  3154                           ;End of C runtime variable initialization code
  3155                           
  3156  0035                     __end_of__initialization:	
  3157  0035  107E               	bcf	int$flags,0	;clear compiler interrupt flag (level 1)
  3158  0036  0140               	movlb	0
  3159  0037  2838               	ljmp	_main	;jump to C main() function
  3160                           
  3161                           	psect	bssCOMMON
  3162  007B                     __pbssCOMMON:	
  3163  007B                     _brightness:	
  3164  007B                     	ds	1
  3165                           
  3166                           	psect	dataCOMMON
  3167  0076                     __pdataCOMMON:	
  3168  0076                     _counter:	
  3169  0076                     	ds	2
  3170  0078                     _idleStart:	
  3171  0078                     	ds	1
  3172                           
  3173                           	psect	cstackCOMMON
  3174  0070                     __pcstackCOMMON:	
  3175  0070                     ?_PMD_Initialize:	
  3176  0070                     ?_SPI1_Initialize:	
  3177                           ; 1 bytes @ 0x0
  3178                           
  3179  0070                     ?_PIN_MANAGER_Initialize:	
  3180                           ; 1 bytes @ 0x0
  3181                           
  3182  0070                     ?_OSCILLATOR_Initialize:	
  3183                           ; 1 bytes @ 0x0
  3184                           
  3185  0070                     ?_CLC1_Initialize:	
  3186                           ; 1 bytes @ 0x0
  3187                           
  3188  0070                     ?_NCO1_Initialize:	
  3189                           ; 1 bytes @ 0x0
  3190                           
  3191  0070                     ?_CLC2_Initialize:	
  3192                           ; 1 bytes @ 0x0
  3193                           
  3194  0070                     ?_TMR0_Initialize:	
  3195                           ; 1 bytes @ 0x0
  3196                           
  3197  0070                     ?_SPI1_Isr:	
  3198                           ; 1 bytes @ 0x0
  3199                           
  3200  0070                     ??_SPI1_Isr:	
  3201                           ; 1 bytes @ 0x0
  3202                           
  3203  0070                     ?_TMR0_ISR:	
  3204                           ; 1 bytes @ 0x0
  3205                           
  3206  0070                     ?_TMR0_DefaultInterruptHandler:	
  3207                           ; 1 bytes @ 0x0
  3208                           
  3209  0070                     ??_TMR0_DefaultInterruptHandler:	
  3210                           ; 1 bytes @ 0x0
  3211                           
  3212  0070                     ?_PWM3_Initialize:	
  3213                           ; 1 bytes @ 0x0
  3214                           
  3215  0070                     ?_TMR2_Initialize:	
  3216                           ; 1 bytes @ 0x0
  3217                           
  3218  0070                     ?_SYSTEM_Initialize:	
  3219                           ; 1 bytes @ 0x0
  3220                           
  3221  0070                     ?_INTERRUPT_InterruptManager:	
  3222                           ; 1 bytes @ 0x0
  3223                           
  3224  0070                     ?_spi1InterruptHandler:	
  3225                           ; 1 bytes @ 0x0
  3226                           
  3227  0070                     ??_spi1InterruptHandler:	
  3228                           ; 1 bytes @ 0x0
  3229                           
  3230  0070                     ?_tmr0InterruptHandler:	
  3231                           ; 1 bytes @ 0x0
  3232                           
  3233  0070                     ??_tmr0InterruptHandler:	
  3234                           ; 1 bytes @ 0x0
  3235                           
  3236  0070                     ?_main:	
  3237                           ; 1 bytes @ 0x0
  3238                           
  3239                           
  3240                           ; 1 bytes @ 0x0
  3241  0070                     	ds	2
  3242  0072                     ??_PMD_Initialize:	
  3243  0072                     ??_PIN_MANAGER_Initialize:	
  3244                           ; 1 bytes @ 0x2
  3245                           
  3246  0072                     ??_OSCILLATOR_Initialize:	
  3247                           ; 1 bytes @ 0x2
  3248                           
  3249  0072                     ??_CLC1_Initialize:	
  3250                           ; 1 bytes @ 0x2
  3251                           
  3252  0072                     ??_NCO1_Initialize:	
  3253                           ; 1 bytes @ 0x2
  3254                           
  3255  0072                     ??_CLC2_Initialize:	
  3256                           ; 1 bytes @ 0x2
  3257                           
  3258  0072                     ?_SPI1_SetInterruptHandler:	
  3259                           ; 1 bytes @ 0x2
  3260                           
  3261  0072                     ??_TMR0_ISR:	
  3262                           ; 1 bytes @ 0x2
  3263                           
  3264  0072                     ?_TMR0_SetInterruptHandler:	
  3265                           ; 1 bytes @ 0x2
  3266                           
  3267  0072                     ??_PWM3_Initialize:	
  3268                           ; 1 bytes @ 0x2
  3269                           
  3270  0072                     ?_PWM3_LoadDutyValue:	
  3271                           ; 1 bytes @ 0x2
  3272                           
  3273  0072                     ??_TMR2_Initialize:	
  3274                           ; 1 bytes @ 0x2
  3275                           
  3276  0072                     ??_INTERRUPT_InterruptManager:	
  3277                           ; 1 bytes @ 0x2
  3278                           
  3279  0072                     PWM3_LoadDutyValue@dutyValue:	
  3280                           ; 1 bytes @ 0x2
  3281                           
  3282  0072                     SPI1_SetInterruptHandler@handler:	
  3283                           ; 2 bytes @ 0x2
  3284                           
  3285  0072                     TMR0_SetInterruptHandler@InterruptHandler:	
  3286                           ; 2 bytes @ 0x2
  3287                           
  3288                           
  3289                           ; 2 bytes @ 0x2
  3290  0072                     	ds	2
  3291  0074                     ??_SPI1_Initialize:	
  3292  0074                     ??_TMR0_Initialize:	
  3293                           ; 1 bytes @ 0x4
  3294                           
  3295  0074                     ??_SPI1_SetInterruptHandler:	
  3296                           ; 1 bytes @ 0x4
  3297                           
  3298  0074                     ??_TMR0_SetInterruptHandler:	
  3299                           ; 1 bytes @ 0x4
  3300                           
  3301  0074                     ??_PWM3_LoadDutyValue:	
  3302                           ; 1 bytes @ 0x4
  3303                           
  3304  0074                     ??_SYSTEM_Initialize:	
  3305                           ; 1 bytes @ 0x4
  3306                           
  3307                           
  3308                           ; 1 bytes @ 0x4
  3309  0074                     	ds	2
  3310                           
  3311                           	psect	cstackBANK0
  3312  0022                     __pcstackBANK0:	
  3313  0022                     ??_main:	
  3314                           
  3315                           ; 1 bytes @ 0x0
  3316  0022                     	ds	2
  3317                           
  3318                           	psect	maintext
  3319  0038                     __pmaintext:	
  3320 ;;
  3321 ;;Main: autosize = 0, tempsize = 2, incstack = 0, save=0
  3322 ;;
  3323 ;; *************** function _main *****************
  3324 ;; Defined at:
  3325 ;;		line 66 in file "main.c"
  3326 ;; Parameters:    Size  Location     Type
  3327 ;;		None
  3328 ;; Auto vars:     Size  Location     Type
  3329 ;;		None
  3330 ;; Return value:  Size  Location     Type
  3331 ;;                  1    wreg      void 
  3332 ;; Registers used:
  3333 ;;		wreg, status,2, status,0, pclath, cstack
  3334 ;; Tracked objects:
  3335 ;;		On entry : B3F/0
  3336 ;;		On exit  : 0/0
  3337 ;;		Unchanged: 0/0
  3338 ;; Data sizes:     COMMON   BANK0   BANK1   BANK2
  3339 ;;      Params:         0       0       0       0
  3340 ;;      Locals:         0       0       0       0
  3341 ;;      Temps:          0       2       0       0
  3342 ;;      Totals:         0       2       0       0
  3343 ;;Total ram usage:        2 bytes
  3344 ;; Hardware stack levels required when called:    6
  3345 ;; This function calls:
  3346 ;;		_PWM3_LoadDutyValue
  3347 ;;		_SPI1_SetInterruptHandler
  3348 ;;		_SYSTEM_Initialize
  3349 ;;		_TMR0_SetInterruptHandler
  3350 ;; This function is called by:
  3351 ;;		Startup code after reset
  3352 ;; This function uses a non-reentrant model
  3353 ;;
  3354                           
  3355                           
  3356                           ;psect for function _main
  3357  0038                     _main:	
  3358  0038                     l1370:	
  3359                           ;incstack = 0
  3360                           ; Regs used in _main: [wreg+status,2+status,0+pclath+cstack]
  3361                           
  3362                           
  3363                           ;main.c: 70:     SYSTEM_Initialize();
  3364  0038  3180  2061  3180   	fcall	_SYSTEM_Initialize
  3365  003B                     l1372:	
  3366                           
  3367                           ;main.c: 76:     (INTCONbits.GIE = 1);
  3368  003B  178B               	bsf	11,7	;volatile
  3369  003C                     l1374:	
  3370                           
  3371                           ;main.c: 79:     (INTCONbits.PEIE = 1);
  3372  003C  170B               	bsf	11,6	;volatile
  3373                           
  3374                           ;main.c: 87:     SPI1_SetInterruptHandler(spi1InterruptHandler);
  3375  003D  3060               	movlw	low _spi1InterruptHandler
  3376  003E  00F2               	movwf	SPI1_SetInterruptHandler@handler
  3377  003F  3001               	movlw	high _spi1InterruptHandler
  3378  0040  00F3               	movwf	SPI1_SetInterruptHandler@handler+1
  3379  0041  3181  218B  3180   	fcall	_SPI1_SetInterruptHandler
  3380  0044                     l1376:	
  3381                           
  3382                           ;main.c: 88:     SSP1CON1bits.SSPEN = 1;
  3383  0044  0143               	movlb	3	; select bank3
  3384  0045  1690               	bsf	16,5	;volatile
  3385                           
  3386                           ;main.c: 89:     PWM3_LoadDutyValue(0);
  3387  0046  3000               	movlw	0
  3388  0047  00F2               	movwf	PWM3_LoadDutyValue@dutyValue
  3389  0048  00F3               	movwf	PWM3_LoadDutyValue@dutyValue+1
  3390  0049  3180  20D6  3180   	fcall	_PWM3_LoadDutyValue
  3391                           
  3392                           ;main.c: 90:     TMR0_SetInterruptHandler(tmr0InterruptHandler);
  3393  004C  309E               	movlw	low _tmr0InterruptHandler
  3394  004D  00F2               	movwf	TMR0_SetInterruptHandler@InterruptHandler
  3395  004E  3000               	movlw	high _tmr0InterruptHandler
  3396  004F  00F3               	movwf	TMR0_SetInterruptHandler@InterruptHandler+1
  3397  0050  3181  2185  3180   	fcall	_TMR0_SetInterruptHandler
  3398  0053                     l1378:	
  3399                           
  3400                           ;main.c: 93:         _delay((unsigned long)((50)*(32000000/4000.0)));
  3401  0053  3003               	movlw	3
  3402  0054  0140               	movlb	0	; select bank0
  3403  0055  00A3               	movwf	??_main+1
  3404  0056  3008               	movlw	8
  3405  0057  00A2               	movwf	??_main
  3406  0058  3077               	movlw	119
  3407  0059                     u287:	
  3408  0059  0B89               	decfsz	9,f
  3409  005A  2859               	goto	u287
  3410  005B  0BA2               	decfsz	??_main,f
  3411  005C  2859               	goto	u287
  3412  005D  0BA3               	decfsz	??_main+1,f
  3413  005E  2859               	goto	u287
  3414  005F  2853               	goto	l1378
  3415  0060  2827               	ljmp	start
  3416  0061                     __end_of_main:	
  3417                           
  3418                           	psect	text1
  3419  0061                     __ptext1:	
  3420 ;; *************** function _SYSTEM_Initialize *****************
  3421 ;; Defined at:
  3422 ;;		line 50 in file "mcc_generated_files/mcc.c"
  3423 ;; Parameters:    Size  Location     Type
  3424 ;;		None
  3425 ;; Auto vars:     Size  Location     Type
  3426 ;;		None
  3427 ;; Return value:  Size  Location     Type
  3428 ;;                  1    wreg      void 
  3429 ;; Registers used:
  3430 ;;		wreg, status,2, status,0, pclath, cstack
  3431 ;; Tracked objects:
  3432 ;;		On entry : 0/0
  3433 ;;		On exit  : 0/0
  3434 ;;		Unchanged: 0/0
  3435 ;; Data sizes:     COMMON   BANK0   BANK1   BANK2
  3436 ;;      Params:         0       0       0       0
  3437 ;;      Locals:         0       0       0       0
  3438 ;;      Temps:          0       0       0       0
  3439 ;;      Totals:         0       0       0       0
  3440 ;;Total ram usage:        0 bytes
  3441 ;; Hardware stack levels used:    1
  3442 ;; Hardware stack levels required when called:    5
  3443 ;; This function calls:
  3444 ;;		_CLC1_Initialize
  3445 ;;		_CLC2_Initialize
  3446 ;;		_NCO1_Initialize
  3447 ;;		_OSCILLATOR_Initialize
  3448 ;;		_PIN_MANAGER_Initialize
  3449 ;;		_PMD_Initialize
  3450 ;;		_PWM3_Initialize
  3451 ;;		_SPI1_Initialize
  3452 ;;		_TMR0_Initialize
  3453 ;;		_TMR2_Initialize
  3454 ;; This function is called by:
  3455 ;;		_main
  3456 ;; This function uses a non-reentrant model
  3457 ;;
  3458                           
  3459                           
  3460                           ;psect for function _SYSTEM_Initialize
  3461  0061                     _SYSTEM_Initialize:	
  3462  0061                     l1322:	
  3463                           ;incstack = 0
  3464                           ; Regs used in _SYSTEM_Initialize: [wreg+status,2+status,0+pclath+cstack]
  3465                           
  3466                           
  3467                           ;mcc_generated_files/mcc.c: 52:     PMD_Initialize();
  3468  0061  3181  217D  3180   	fcall	_PMD_Initialize
  3469  0064                     l1324:	
  3470                           
  3471                           ;mcc_generated_files/mcc.c: 53:     SPI1_Initialize();
  3472  0064  3180  2080  3180   	fcall	_SPI1_Initialize
  3473  0067                     l1326:	
  3474                           
  3475                           ;mcc_generated_files/mcc.c: 54:     PIN_MANAGER_Initialize();
  3476  0067  3180  20BB  3180   	fcall	_PIN_MANAGER_Initialize
  3477  006A                     l1328:	
  3478                           
  3479                           ;mcc_generated_files/mcc.c: 55:     OSCILLATOR_Initialize();
  3480  006A  3181  216B  3180   	fcall	_OSCILLATOR_Initialize
  3481  006D                     l1330:	
  3482                           
  3483                           ;mcc_generated_files/mcc.c: 56:     CLC1_Initialize();
  3484  006D  3181  2113  3180   	fcall	_CLC1_Initialize
  3485  0070                     l1332:	
  3486                           
  3487                           ;mcc_generated_files/mcc.c: 57:     NCO1_Initialize();
  3488  0070  3181  2134  3180   	fcall	_NCO1_Initialize
  3489  0073                     l1334:	
  3490                           
  3491                           ;mcc_generated_files/mcc.c: 58:     CLC2_Initialize();
  3492  0073  3181  2124  3180   	fcall	_CLC2_Initialize
  3493  0076                     l1336:	
  3494                           
  3495                           ;mcc_generated_files/mcc.c: 59:     PWM3_Initialize();
  3496  0076  3181  2175  3180   	fcall	_PWM3_Initialize
  3497  0079                     l1338:	
  3498                           
  3499                           ;mcc_generated_files/mcc.c: 60:     TMR2_Initialize();
  3500  0079  3181  2152  3180   	fcall	_TMR2_Initialize
  3501  007C                     l1340:	
  3502                           
  3503                           ;mcc_generated_files/mcc.c: 61:     TMR0_Initialize();
  3504  007C  3180  20EC  3180   	fcall	_TMR0_Initialize
  3505  007F                     l128:	
  3506  007F  0008               	return
  3507  0080                     __end_of_SYSTEM_Initialize:	
  3508                           
  3509                           	psect	text2
  3510  0152                     __ptext2:	
  3511 ;; *************** function _TMR2_Initialize *****************
  3512 ;; Defined at:
  3513 ;;		line 62 in file "mcc_generated_files/tmr2.c"
  3514 ;; Parameters:    Size  Location     Type
  3515 ;;		None
  3516 ;; Auto vars:     Size  Location     Type
  3517 ;;		None
  3518 ;; Return value:  Size  Location     Type
  3519 ;;                  1    wreg      void 
  3520 ;; Registers used:
  3521 ;;		wreg, status,2
  3522 ;; Tracked objects:
  3523 ;;		On entry : 0/0
  3524 ;;		On exit  : 0/0
  3525 ;;		Unchanged: 0/0
  3526 ;; Data sizes:     COMMON   BANK0   BANK1   BANK2
  3527 ;;      Params:         0       0       0       0
  3528 ;;      Locals:         0       0       0       0
  3529 ;;      Temps:          0       0       0       0
  3530 ;;      Totals:         0       0       0       0
  3531 ;;Total ram usage:        0 bytes
  3532 ;; Hardware stack levels used:    1
  3533 ;; Hardware stack levels required when called:    3
  3534 ;; This function calls:
  3535 ;;		Nothing
  3536 ;; This function is called by:
  3537 ;;		_SYSTEM_Initialize
  3538 ;; This function uses a non-reentrant model
  3539 ;;
  3540                           
  3541                           
  3542                           ;psect for function _TMR2_Initialize
  3543  0152                     _TMR2_Initialize:	
  3544  0152                     l992:	
  3545                           ;incstack = 0
  3546                           ; Regs used in _TMR2_Initialize: [wreg+status,2]
  3547                           
  3548                           
  3549                           ;mcc_generated_files/tmr2.c: 67:     T2CLKCON = 0x01;
  3550  0152  3001               	movlw	1
  3551  0153  0145               	movlb	5	; select bank5
  3552  0154  0090               	movwf	16	;volatile
  3553  0155                     l994:	
  3554                           
  3555                           ;mcc_generated_files/tmr2.c: 70:     T2HLT = 0x00;
  3556  0155  018F               	clrf	15	;volatile
  3557  0156                     l996:	
  3558                           
  3559                           ;mcc_generated_files/tmr2.c: 73:     T2RST = 0x00;
  3560  0156  0191               	clrf	17	;volatile
  3561                           
  3562                           ;mcc_generated_files/tmr2.c: 76:     T2PR = 0x7C;
  3563  0157  307C               	movlw	124
  3564  0158  008D               	movwf	13	;volatile
  3565  0159                     l998:	
  3566                           
  3567                           ;mcc_generated_files/tmr2.c: 79:     T2TMR = 0x00;
  3568  0159  018C               	clrf	12	;volatile
  3569  015A                     l1000:	
  3570                           
  3571                           ;mcc_generated_files/tmr2.c: 82:     PIR4bits.TMR2IF = 0;
  3572  015A  014E               	movlb	14	; select bank14
  3573  015B  1090               	bcf	16,1	;volatile
  3574  015C                     l1002:	
  3575                           
  3576                           ;mcc_generated_files/tmr2.c: 85:     T2CON = 0xF0;
  3577  015C  30F0               	movlw	240
  3578  015D  0145               	movlb	5	; select bank5
  3579  015E  008E               	movwf	14	;volatile
  3580  015F                     l39:	
  3581  015F  0008               	return
  3582  0160                     __end_of_TMR2_Initialize:	
  3583                           
  3584                           	psect	text3
  3585  00EC                     __ptext3:	
  3586 ;; *************** function _TMR0_Initialize *****************
  3587 ;; Defined at:
  3588 ;;		line 61 in file "mcc_generated_files/tmr0.c"
  3589 ;; Parameters:    Size  Location     Type
  3590 ;;		None
  3591 ;; Auto vars:     Size  Location     Type
  3592 ;;		None
  3593 ;; Return value:  Size  Location     Type
  3594 ;;                  1    wreg      void 
  3595 ;; Registers used:
  3596 ;;		wreg, status,2, status,0, pclath, cstack
  3597 ;; Tracked objects:
  3598 ;;		On entry : 0/0
  3599 ;;		On exit  : 0/0
  3600 ;;		Unchanged: 0/0
  3601 ;; Data sizes:     COMMON   BANK0   BANK1   BANK2
  3602 ;;      Params:         0       0       0       0
  3603 ;;      Locals:         0       0       0       0
  3604 ;;      Temps:          0       0       0       0
  3605 ;;      Totals:         0       0       0       0
  3606 ;;Total ram usage:        0 bytes
  3607 ;; Hardware stack levels used:    1
  3608 ;; Hardware stack levels required when called:    4
  3609 ;; This function calls:
  3610 ;;		_TMR0_SetInterruptHandler
  3611 ;; This function is called by:
  3612 ;;		_SYSTEM_Initialize
  3613 ;; This function uses a non-reentrant model
  3614 ;;
  3615                           
  3616                           
  3617                           ;psect for function _TMR0_Initialize
  3618  00EC                     _TMR0_Initialize:	
  3619  00EC                     l1298:	
  3620                           ;incstack = 0
  3621                           ; Regs used in _TMR0_Initialize: [wreg+status,2+status,0+pclath+cstack]
  3622                           
  3623                           
  3624                           ;mcc_generated_files/tmr0.c: 66:     T0CON1 = 0x46;
  3625  00EC  3046               	movlw	70
  3626  00ED  014B               	movlb	11	; select bank11
  3627  00EE  009F               	movwf	31	;volatile
  3628                           
  3629                           ;mcc_generated_files/tmr0.c: 69:     TMR0H = 0x7C;
  3630  00EF  307C               	movlw	124
  3631  00F0  009D               	movwf	29	;volatile
  3632  00F1                     l1300:	
  3633                           
  3634                           ;mcc_generated_files/tmr0.c: 72:     TMR0L = 0x00;
  3635  00F1  019C               	clrf	28	;volatile
  3636  00F2                     l1302:	
  3637                           
  3638                           ;mcc_generated_files/tmr0.c: 75:     PIR0bits.TMR0IF = 0;
  3639  00F2  014E               	movlb	14	; select bank14
  3640  00F3  128C               	bcf	12,5	;volatile
  3641  00F4                     l1304:	
  3642                           
  3643                           ;mcc_generated_files/tmr0.c: 78:     PIE0bits.TMR0IE = 1;
  3644  00F4  1696               	bsf	22,5	;volatile
  3645  00F5                     l1306:	
  3646                           
  3647                           ;mcc_generated_files/tmr0.c: 81:     TMR0_SetInterruptHandler(TMR0_DefaultInterruptHandl
      +                          er);
  3648  00F5  3097               	movlw	low _TMR0_DefaultInterruptHandler
  3649  00F6  00F2               	movwf	TMR0_SetInterruptHandler@InterruptHandler
  3650  00F7  3001               	movlw	high _TMR0_DefaultInterruptHandler
  3651  00F8  00F3               	movwf	TMR0_SetInterruptHandler@InterruptHandler+1
  3652  00F9  3181  2185  3180   	fcall	_TMR0_SetInterruptHandler
  3653  00FC                     l1308:	
  3654                           
  3655                           ;mcc_generated_files/tmr0.c: 84:     T0CON0 = 0x80;
  3656  00FC  3080               	movlw	128
  3657  00FD  014B               	movlb	11	; select bank11
  3658  00FE  009E               	movwf	30	;volatile
  3659  00FF                     l427:	
  3660  00FF  0008               	return
  3661  0100                     __end_of_TMR0_Initialize:	
  3662                           
  3663                           	psect	text4
  3664  0185                     __ptext4:	
  3665 ;; *************** function _TMR0_SetInterruptHandler *****************
  3666 ;; Defined at:
  3667 ;;		line 134 in file "mcc_generated_files/tmr0.c"
  3668 ;; Parameters:    Size  Location     Type
  3669 ;;  InterruptHan    2    2[COMMON] PTR FTN()void 
  3670 ;;		 -> TMR0_DefaultInterruptHandler(1), tmr0InterruptHandler(1), 
  3671 ;; Auto vars:     Size  Location     Type
  3672 ;;		None
  3673 ;; Return value:  Size  Location     Type
  3674 ;;                  1    wreg      void 
  3675 ;; Registers used:
  3676 ;;		wreg
  3677 ;; Tracked objects:
  3678 ;;		On entry : 0/0
  3679 ;;		On exit  : 0/0
  3680 ;;		Unchanged: 0/0
  3681 ;; Data sizes:     COMMON   BANK0   BANK1   BANK2
  3682 ;;      Params:         2       0       0       0
  3683 ;;      Locals:         0       0       0       0
  3684 ;;      Temps:          0       0       0       0
  3685 ;;      Totals:         2       0       0       0
  3686 ;;Total ram usage:        2 bytes
  3687 ;; Hardware stack levels used:    1
  3688 ;; Hardware stack levels required when called:    3
  3689 ;; This function calls:
  3690 ;;		Nothing
  3691 ;; This function is called by:
  3692 ;;		_main
  3693 ;;		_TMR0_Initialize
  3694 ;; This function uses a non-reentrant model
  3695 ;;
  3696                           
  3697                           
  3698                           ;psect for function _TMR0_SetInterruptHandler
  3699  0185                     _TMR0_SetInterruptHandler:	
  3700  0185                     l1284:	
  3701                           ;incstack = 0
  3702                           ; Regs used in _TMR0_SetInterruptHandler: [wreg]
  3703                           
  3704                           
  3705                           ;mcc_generated_files/tmr0.c: 135:     TMR0_InterruptHandler = InterruptHandler;
  3706  0185  0873               	movf	TMR0_SetInterruptHandler@InterruptHandler+1,w
  3707  0186  0140               	movlb	0	; select bank0
  3708  0187  00A1               	movwf	_TMR0_InterruptHandler+1
  3709  0188  0872               	movf	TMR0_SetInterruptHandler@InterruptHandler,w
  3710  0189  00A0               	movwf	_TMR0_InterruptHandler
  3711  018A                     l449:	
  3712  018A  0008               	return
  3713  018B                     __end_of_TMR0_SetInterruptHandler:	
  3714                           
  3715                           	psect	text5
  3716  0080                     __ptext5:	
  3717 ;; *************** function _SPI1_Initialize *****************
  3718 ;; Defined at:
  3719 ;;		line 62 in file "mcc_generated_files/spi1.c"
  3720 ;; Parameters:    Size  Location     Type
  3721 ;;		None
  3722 ;; Auto vars:     Size  Location     Type
  3723 ;;		None
  3724 ;; Return value:  Size  Location     Type
  3725 ;;                  1    wreg      void 
  3726 ;; Registers used:
  3727 ;;		wreg, status,2, status,0, pclath, cstack
  3728 ;; Tracked objects:
  3729 ;;		On entry : 0/0
  3730 ;;		On exit  : 0/0
  3731 ;;		Unchanged: 0/0
  3732 ;; Data sizes:     COMMON   BANK0   BANK1   BANK2
  3733 ;;      Params:         0       0       0       0
  3734 ;;      Locals:         0       0       0       0
  3735 ;;      Temps:          0       0       0       0
  3736 ;;      Totals:         0       0       0       0
  3737 ;;Total ram usage:        0 bytes
  3738 ;; Hardware stack levels used:    1
  3739 ;; Hardware stack levels required when called:    4
  3740 ;; This function calls:
  3741 ;;		_SPI1_SetInterruptHandler
  3742 ;; This function is called by:
  3743 ;;		_SYSTEM_Initialize
  3744 ;; This function uses a non-reentrant model
  3745 ;;
  3746                           
  3747                           
  3748                           ;psect for function _SPI1_Initialize
  3749  0080                     _SPI1_Initialize:	
  3750  0080                     l1286:	
  3751                           ;incstack = 0
  3752                           ; Regs used in _SPI1_Initialize: [wreg+status,2+status,0+pclath+cstack]
  3753                           
  3754                           
  3755                           ;mcc_generated_files/spi1.c: 65:     SSP1CLKPPS = 5;
  3756  0080  3005               	movlw	5
  3757  0081  017D               	movlb	61	; select bank61
  3758  0082  00C5               	movwf	69	;volatile
  3759                           
  3760                           ;mcc_generated_files/spi1.c: 66:     SSP1DATPPS = 4;
  3761  0083  3004               	movlw	4
  3762  0084  00C6               	movwf	70	;volatile
  3763                           
  3764                           ;mcc_generated_files/spi1.c: 67:     RA5PPS = 21;
  3765  0085  3015               	movlw	21
  3766  0086  017E               	movlb	62	; select bank62
  3767  0087  0095               	movwf	21	;volatile
  3768                           
  3769                           ;mcc_generated_files/spi1.c: 68:     RA1PPS = 22;
  3770  0088  3016               	movlw	22
  3771  0089  0091               	movwf	17	;volatile
  3772                           
  3773                           ;mcc_generated_files/spi1.c: 70:     SSP1STAT = 0x40;
  3774  008A  3040               	movlw	64
  3775  008B  0143               	movlb	3	; select bank3
  3776  008C  008F               	movwf	15	;volatile
  3777                           
  3778                           ;mcc_generated_files/spi1.c: 71:     SSP1CON1 = 0x25;
  3779  008D  3025               	movlw	37
  3780  008E  0090               	movwf	16	;volatile
  3781  008F                     l1288:	
  3782                           
  3783                           ;mcc_generated_files/spi1.c: 72:     SSP1ADD = 0x00;
  3784  008F  018D               	clrf	13	;volatile
  3785  0090                     l1290:	
  3786                           
  3787                           ;mcc_generated_files/spi1.c: 73:     PIE3bits.SSP1IE = 1;
  3788  0090  014E               	movlb	14	; select bank14
  3789  0091  1419               	bsf	25,0	;volatile
  3790  0092                     l1292:	
  3791                           
  3792                           ;mcc_generated_files/spi1.c: 74:     SPI1_SetInterruptHandler(SPI1_Isr);
  3793  0092  3000               	movlw	low _SPI1_Isr
  3794  0093  00F2               	movwf	SPI1_SetInterruptHandler@handler
  3795  0094  3001               	movlw	high _SPI1_Isr
  3796  0095  00F3               	movwf	SPI1_SetInterruptHandler@handler+1
  3797  0096  3181  218B  3180   	fcall	_SPI1_SetInterruptHandler
  3798  0099                     l1294:	
  3799                           
  3800                           ;mcc_generated_files/spi1.c: 75:     TRISAbits.TRISA5 = 1;
  3801  0099  0140               	movlb	0	; select bank0
  3802  009A  1692               	bsf	18,5	;volatile
  3803  009B                     l1296:	
  3804                           
  3805                           ;mcc_generated_files/spi1.c: 76:     SSP1CON1bits.SSPEN = 0;
  3806  009B  0143               	movlb	3	; select bank3
  3807  009C  1290               	bcf	16,5	;volatile
  3808  009D                     l255:	
  3809  009D  0008               	return
  3810  009E                     __end_of_SPI1_Initialize:	
  3811                           
  3812                           	psect	text6
  3813  018B                     __ptext6:	
  3814 ;; *************** function _SPI1_SetInterruptHandler *****************
  3815 ;; Defined at:
  3816 ;;		line 158 in file "mcc_generated_files/spi1.c"
  3817 ;; Parameters:    Size  Location     Type
  3818 ;;  handler         2    2[COMMON] PTR FTN()void 
  3819 ;;		 -> spi1InterruptHandler(1), SPI1_Isr(1), 
  3820 ;; Auto vars:     Size  Location     Type
  3821 ;;		None
  3822 ;; Return value:  Size  Location     Type
  3823 ;;                  1    wreg      void 
  3824 ;; Registers used:
  3825 ;;		wreg
  3826 ;; Tracked objects:
  3827 ;;		On entry : 0/0
  3828 ;;		On exit  : 0/0
  3829 ;;		Unchanged: 0/0
  3830 ;; Data sizes:     COMMON   BANK0   BANK1   BANK2
  3831 ;;      Params:         2       0       0       0
  3832 ;;      Locals:         0       0       0       0
  3833 ;;      Temps:          0       0       0       0
  3834 ;;      Totals:         2       0       0       0
  3835 ;;Total ram usage:        2 bytes
  3836 ;; Hardware stack levels used:    1
  3837 ;; Hardware stack levels required when called:    3
  3838 ;; This function calls:
  3839 ;;		Nothing
  3840 ;; This function is called by:
  3841 ;;		_SPI1_Initialize
  3842 ;;		_main
  3843 ;; This function uses a non-reentrant model
  3844 ;;
  3845                           
  3846                           
  3847                           ;psect for function _SPI1_SetInterruptHandler
  3848  018B                     _SPI1_SetInterruptHandler:	
  3849  018B                     l1282:	
  3850                           ;incstack = 0
  3851                           ; Regs used in _SPI1_SetInterruptHandler: [wreg]
  3852                           
  3853                           
  3854                           ;mcc_generated_files/spi1.c: 158: void SPI1_SetInterruptHandler(spi1InterruptHandler_t h
      +                          andler);mcc_generated_files/spi1.c: 159: {;mcc_generated_files/spi1.c: 160:     MSSP1_In
      +                          terruptHandler = handler;
  3855  018B  0873               	movf	SPI1_SetInterruptHandler@handler+1,w
  3856  018C  00FA               	movwf	_MSSP1_InterruptHandler+1
  3857  018D  0872               	movf	SPI1_SetInterruptHandler@handler,w
  3858  018E  00F9               	movwf	_MSSP1_InterruptHandler
  3859  018F                     l303:	
  3860  018F  0008               	return
  3861  0190                     __end_of_SPI1_SetInterruptHandler:	
  3862                           
  3863                           	psect	text7
  3864  0175                     __ptext7:	
  3865 ;; *************** function _PWM3_Initialize *****************
  3866 ;; Defined at:
  3867 ;;		line 58 in file "mcc_generated_files/pwm3.c"
  3868 ;; Parameters:    Size  Location     Type
  3869 ;;		None
  3870 ;; Auto vars:     Size  Location     Type
  3871 ;;		None
  3872 ;; Return value:  Size  Location     Type
  3873 ;;                  1    wreg      void 
  3874 ;; Registers used:
  3875 ;;		wreg
  3876 ;; Tracked objects:
  3877 ;;		On entry : 0/0
  3878 ;;		On exit  : 0/0
  3879 ;;		Unchanged: 0/0
  3880 ;; Data sizes:     COMMON   BANK0   BANK1   BANK2
  3881 ;;      Params:         0       0       0       0
  3882 ;;      Locals:         0       0       0       0
  3883 ;;      Temps:          0       0       0       0
  3884 ;;      Totals:         0       0       0       0
  3885 ;;Total ram usage:        0 bytes
  3886 ;; Hardware stack levels used:    1
  3887 ;; Hardware stack levels required when called:    3
  3888 ;; This function calls:
  3889 ;;		Nothing
  3890 ;; This function is called by:
  3891 ;;		_SYSTEM_Initialize
  3892 ;; This function uses a non-reentrant model
  3893 ;;
  3894                           
  3895                           
  3896                           ;psect for function _PWM3_Initialize
  3897  0175                     _PWM3_Initialize:	
  3898  0175                     l990:	
  3899                           ;incstack = 0
  3900                           ; Regs used in _PWM3_Initialize: [wreg]
  3901                           
  3902                           
  3903                           ;mcc_generated_files/pwm3.c: 62:     PWM3CON = 0x80;
  3904  0175  3080               	movlw	128
  3905  0176  0146               	movlb	6	; select bank6
  3906  0177  0096               	movwf	22	;volatile
  3907                           
  3908                           ;mcc_generated_files/pwm3.c: 65:     PWM3DCH = 0x3E;
  3909  0178  303E               	movlw	62
  3910  0179  0095               	movwf	21	;volatile
  3911                           
  3912                           ;mcc_generated_files/pwm3.c: 68:     PWM3DCL = 0x40;
  3913  017A  3040               	movlw	64
  3914  017B  0094               	movwf	20	;volatile
  3915  017C                     l9:	
  3916  017C  0008               	return
  3917  017D                     __end_of_PWM3_Initialize:	
  3918                           
  3919                           	psect	text8
  3920  017D                     __ptext8:	
  3921 ;; *************** function _PMD_Initialize *****************
  3922 ;; Defined at:
  3923 ;;		line 80 in file "mcc_generated_files/mcc.c"
  3924 ;; Parameters:    Size  Location     Type
  3925 ;;		None
  3926 ;; Auto vars:     Size  Location     Type
  3927 ;;		None
  3928 ;; Return value:  Size  Location     Type
  3929 ;;                  1    wreg      void 
  3930 ;; Registers used:
  3931 ;;		status,2
  3932 ;; Tracked objects:
  3933 ;;		On entry : 0/0
  3934 ;;		On exit  : 0/0
  3935 ;;		Unchanged: 0/0
  3936 ;; Data sizes:     COMMON   BANK0   BANK1   BANK2
  3937 ;;      Params:         0       0       0       0
  3938 ;;      Locals:         0       0       0       0
  3939 ;;      Temps:          0       0       0       0
  3940 ;;      Totals:         0       0       0       0
  3941 ;;Total ram usage:        0 bytes
  3942 ;; Hardware stack levels used:    1
  3943 ;; Hardware stack levels required when called:    3
  3944 ;; This function calls:
  3945 ;;		Nothing
  3946 ;; This function is called by:
  3947 ;;		_SYSTEM_Initialize
  3948 ;; This function uses a non-reentrant model
  3949 ;;
  3950                           
  3951                           
  3952                           ;psect for function _PMD_Initialize
  3953  017D                     _PMD_Initialize:	
  3954  017D                     l1004:	
  3955                           ;incstack = 0
  3956                           ; Regs used in _PMD_Initialize: [status,2]
  3957                           
  3958                           
  3959                           ;mcc_generated_files/mcc.c: 83:     PMD0 = 0x00;
  3960  017D  014F               	movlb	15	; select bank15
  3961  017E  0196               	clrf	22	;volatile
  3962                           
  3963                           ;mcc_generated_files/mcc.c: 85:     PMD1 = 0x00;
  3964  017F  0197               	clrf	23	;volatile
  3965                           
  3966                           ;mcc_generated_files/mcc.c: 87:     PMD2 = 0x00;
  3967  0180  0198               	clrf	24	;volatile
  3968                           
  3969                           ;mcc_generated_files/mcc.c: 89:     PMD3 = 0x00;
  3970  0181  0199               	clrf	25	;volatile
  3971                           
  3972                           ;mcc_generated_files/mcc.c: 91:     PMD4 = 0x00;
  3973  0182  019A               	clrf	26	;volatile
  3974                           
  3975                           ;mcc_generated_files/mcc.c: 93:     PMD5 = 0x00;
  3976  0183  019B               	clrf	27	;volatile
  3977  0184                     l134:	
  3978  0184  0008               	return
  3979  0185                     __end_of_PMD_Initialize:	
  3980                           
  3981                           	psect	text9
  3982  00BB                     __ptext9:	
  3983 ;; *************** function _PIN_MANAGER_Initialize *****************
  3984 ;; Defined at:
  3985 ;;		line 55 in file "mcc_generated_files/pin_manager.c"
  3986 ;; Parameters:    Size  Location     Type
  3987 ;;		None
  3988 ;; Auto vars:     Size  Location     Type
  3989 ;;		None
  3990 ;; Return value:  Size  Location     Type
  3991 ;;                  1    wreg      void 
  3992 ;; Registers used:
  3993 ;;		wreg, status,2
  3994 ;; Tracked objects:
  3995 ;;		On entry : 0/0
  3996 ;;		On exit  : 0/0
  3997 ;;		Unchanged: 0/0
  3998 ;; Data sizes:     COMMON   BANK0   BANK1   BANK2
  3999 ;;      Params:         0       0       0       0
  4000 ;;      Locals:         0       0       0       0
  4001 ;;      Temps:          0       0       0       0
  4002 ;;      Totals:         0       0       0       0
  4003 ;;Total ram usage:        0 bytes
  4004 ;; Hardware stack levels used:    1
  4005 ;; Hardware stack levels required when called:    3
  4006 ;; This function calls:
  4007 ;;		Nothing
  4008 ;; This function is called by:
  4009 ;;		_SYSTEM_Initialize
  4010 ;; This function uses a non-reentrant model
  4011 ;;
  4012                           
  4013                           
  4014                           ;psect for function _PIN_MANAGER_Initialize
  4015  00BB                     _PIN_MANAGER_Initialize:	
  4016  00BB                     l1018:	
  4017                           ;incstack = 0
  4018                           ; Regs used in _PIN_MANAGER_Initialize: [wreg+status,2]
  4019                           
  4020                           
  4021                           ;mcc_generated_files/pin_manager.c: 60:     LATA = 0x00;
  4022  00BB  0140               	movlb	0	; select bank0
  4023  00BC  0198               	clrf	24	;volatile
  4024  00BD                     l1020:	
  4025                           
  4026                           ;mcc_generated_files/pin_manager.c: 65:     TRISA = 0x30;
  4027  00BD  3030               	movlw	48
  4028  00BE  0092               	movwf	18	;volatile
  4029  00BF                     l1022:	
  4030                           
  4031                           ;mcc_generated_files/pin_manager.c: 70:     ANSELA = 0x00;
  4032  00BF  017E               	movlb	62	; select bank62
  4033  00C0  01B8               	clrf	56	;volatile
  4034  00C1                     l1024:	
  4035                           
  4036                           ;mcc_generated_files/pin_manager.c: 75:     WPUA = 0x00;
  4037  00C1  01B9               	clrf	57	;volatile
  4038  00C2                     l1026:	
  4039                           
  4040                           ;mcc_generated_files/pin_manager.c: 80:     ODCONA = 0x00;
  4041  00C2  01BA               	clrf	58	;volatile
  4042  00C3                     l1028:	
  4043                           
  4044                           ;mcc_generated_files/pin_manager.c: 85:     SLRCONA = 0x00;
  4045  00C3  01BB               	clrf	59	;volatile
  4046  00C4                     l1030:	
  4047                           
  4048                           ;mcc_generated_files/pin_manager.c: 90:     INLVLA = 0x3F;
  4049  00C4  303F               	movlw	63
  4050  00C5  00BC               	movwf	60	;volatile
  4051  00C6                     l1032:	
  4052                           
  4053                           ;mcc_generated_files/pin_manager.c: 99:     SSP1CLKPPS = 0x05;
  4054  00C6  3005               	movlw	5
  4055  00C7  017D               	movlb	61	; select bank61
  4056  00C8  00C5               	movwf	69	;volatile
  4057  00C9                     l1034:	
  4058                           
  4059                           ;mcc_generated_files/pin_manager.c: 100:     CLCIN2PPS = 0x05;
  4060  00C9  3005               	movlw	5
  4061  00CA  00BD               	movwf	61	;volatile
  4062  00CB                     l1036:	
  4063                           
  4064                           ;mcc_generated_files/pin_manager.c: 101:     RA1PPS = 0x16;
  4065  00CB  3016               	movlw	22
  4066  00CC  017E               	movlb	62	; select bank62
  4067  00CD  0091               	movwf	17	;volatile
  4068  00CE                     l1038:	
  4069                           
  4070                           ;mcc_generated_files/pin_manager.c: 102:     RA2PPS = 0x01;
  4071  00CE  3001               	movlw	1
  4072  00CF  0092               	movwf	18	;volatile
  4073  00D0                     l1040:	
  4074                           
  4075                           ;mcc_generated_files/pin_manager.c: 103:     RA0PPS = 0x02;
  4076  00D0  3002               	movlw	2
  4077  00D1  0090               	movwf	16	;volatile
  4078  00D2                     l1042:	
  4079                           
  4080                           ;mcc_generated_files/pin_manager.c: 104:     SSP1DATPPS = 0x04;
  4081  00D2  3004               	movlw	4
  4082  00D3  017D               	movlb	61	; select bank61
  4083  00D4  00C6               	movwf	70	;volatile
  4084  00D5                     l187:	
  4085  00D5  0008               	return
  4086  00D6                     __end_of_PIN_MANAGER_Initialize:	
  4087                           
  4088                           	psect	text10
  4089  016B                     __ptext10:	
  4090 ;; *************** function _OSCILLATOR_Initialize *****************
  4091 ;; Defined at:
  4092 ;;		line 64 in file "mcc_generated_files/mcc.c"
  4093 ;; Parameters:    Size  Location     Type
  4094 ;;		None
  4095 ;; Auto vars:     Size  Location     Type
  4096 ;;		None
  4097 ;; Return value:  Size  Location     Type
  4098 ;;                  1    wreg      void 
  4099 ;; Registers used:
  4100 ;;		wreg, status,2
  4101 ;; Tracked objects:
  4102 ;;		On entry : 0/0
  4103 ;;		On exit  : 0/0
  4104 ;;		Unchanged: 0/0
  4105 ;; Data sizes:     COMMON   BANK0   BANK1   BANK2
  4106 ;;      Params:         0       0       0       0
  4107 ;;      Locals:         0       0       0       0
  4108 ;;      Temps:          0       0       0       0
  4109 ;;      Totals:         0       0       0       0
  4110 ;;Total ram usage:        0 bytes
  4111 ;; Hardware stack levels used:    1
  4112 ;; Hardware stack levels required when called:    3
  4113 ;; This function calls:
  4114 ;;		Nothing
  4115 ;; This function is called by:
  4116 ;;		_SYSTEM_Initialize
  4117 ;; This function uses a non-reentrant model
  4118 ;;
  4119                           
  4120                           
  4121                           ;psect for function _OSCILLATOR_Initialize
  4122  016B                     _OSCILLATOR_Initialize:	
  4123  016B                     l1044:	
  4124                           ;incstack = 0
  4125                           ; Regs used in _OSCILLATOR_Initialize: [wreg+status,2]
  4126                           
  4127                           
  4128                           ;mcc_generated_files/mcc.c: 67:     OSCCON1 = 0x60;
  4129  016B  3060               	movlw	96
  4130  016C  0151               	movlb	17	; select bank17
  4131  016D  008D               	movwf	13	;volatile
  4132  016E                     l1046:	
  4133                           
  4134                           ;mcc_generated_files/mcc.c: 69:     OSCCON3 = 0x00;
  4135  016E  018F               	clrf	15	;volatile
  4136  016F                     l1048:	
  4137                           
  4138                           ;mcc_generated_files/mcc.c: 71:     OSCEN = 0x00;
  4139  016F  0191               	clrf	17	;volatile
  4140                           
  4141                           ;mcc_generated_files/mcc.c: 73:     OSCFRQ = 0x06;
  4142  0170  3006               	movlw	6
  4143  0171  0093               	movwf	19	;volatile
  4144  0172                     l1050:	
  4145                           
  4146                           ;mcc_generated_files/mcc.c: 75:     OSCSTAT = 0x00;
  4147  0172  0190               	clrf	16	;volatile
  4148  0173                     l1052:	
  4149                           
  4150                           ;mcc_generated_files/mcc.c: 77:     OSCTUNE = 0x00;
  4151  0173  0192               	clrf	18	;volatile
  4152  0174                     l131:	
  4153  0174  0008               	return
  4154  0175                     __end_of_OSCILLATOR_Initialize:	
  4155                           
  4156                           	psect	text11
  4157  0134                     __ptext11:	
  4158 ;; *************** function _NCO1_Initialize *****************
  4159 ;; Defined at:
  4160 ;;		line 58 in file "mcc_generated_files/nco1.c"
  4161 ;; Parameters:    Size  Location     Type
  4162 ;;		None
  4163 ;; Auto vars:     Size  Location     Type
  4164 ;;		None
  4165 ;; Return value:  Size  Location     Type
  4166 ;;                  1    wreg      void 
  4167 ;; Registers used:
  4168 ;;		wreg, status,2
  4169 ;; Tracked objects:
  4170 ;;		On entry : 0/0
  4171 ;;		On exit  : 0/0
  4172 ;;		Unchanged: 0/0
  4173 ;; Data sizes:     COMMON   BANK0   BANK1   BANK2
  4174 ;;      Params:         0       0       0       0
  4175 ;;      Locals:         0       0       0       0
  4176 ;;      Temps:          0       0       0       0
  4177 ;;      Totals:         0       0       0       0
  4178 ;;Total ram usage:        0 bytes
  4179 ;; Hardware stack levels used:    1
  4180 ;; Hardware stack levels required when called:    3
  4181 ;; This function calls:
  4182 ;;		Nothing
  4183 ;; This function is called by:
  4184 ;;		_SYSTEM_Initialize
  4185 ;; This function uses a non-reentrant model
  4186 ;;
  4187                           
  4188                           
  4189                           ;psect for function _NCO1_Initialize
  4190  0134                     _NCO1_Initialize:	
  4191  0134                     l1066:	
  4192                           ;incstack = 0
  4193                           ; Regs used in _NCO1_Initialize: [wreg+status,2]
  4194                           
  4195                           
  4196                           ;mcc_generated_files/nco1.c: 62:     NCO1CON = 0x01;
  4197  0134  3001               	movlw	1
  4198  0135  014B               	movlb	11	; select bank11
  4199  0136  0092               	movwf	18	;volatile
  4200                           
  4201                           ;mcc_generated_files/nco1.c: 64:     NCO1CLK = 0xA0;
  4202  0137  30A0               	movlw	160
  4203  0138  0093               	movwf	19	;volatile
  4204  0139                     l1068:	
  4205                           
  4206                           ;mcc_generated_files/nco1.c: 66:     NCO1ACCU = 0x00;
  4207  0139  018E               	clrf	14	;volatile
  4208  013A                     l1070:	
  4209                           
  4210                           ;mcc_generated_files/nco1.c: 68:     NCO1ACCH = 0x00;
  4211  013A  018D               	clrf	13	;volatile
  4212  013B                     l1072:	
  4213                           
  4214                           ;mcc_generated_files/nco1.c: 70:     NCO1ACCL = 0x00;
  4215  013B  018C               	clrf	12	;volatile
  4216  013C                     l1074:	
  4217                           
  4218                           ;mcc_generated_files/nco1.c: 72:     NCO1INCU = 0x00;
  4219  013C  0191               	clrf	17	;volatile
  4220                           
  4221                           ;mcc_generated_files/nco1.c: 74:     NCO1INCH = 0x0E;
  4222  013D  300E               	movlw	14
  4223  013E  0090               	movwf	16	;volatile
  4224                           
  4225                           ;mcc_generated_files/nco1.c: 76:     NCO1INCL = 0x56;
  4226  013F  3056               	movlw	86
  4227  0140  008F               	movwf	15	;volatile
  4228  0141                     l1076:	
  4229                           
  4230                           ;mcc_generated_files/nco1.c: 79:     NCO1CONbits.N1EN = 1;
  4231  0141  1792               	bsf	18,7	;volatile
  4232  0142                     l155:	
  4233  0142  0008               	return
  4234  0143                     __end_of_NCO1_Initialize:	
  4235                           
  4236                           	psect	text12
  4237  0124                     __ptext12:	
  4238 ;; *************** function _CLC2_Initialize *****************
  4239 ;; Defined at:
  4240 ;;		line 58 in file "mcc_generated_files/clc2.c"
  4241 ;; Parameters:    Size  Location     Type
  4242 ;;		None
  4243 ;; Auto vars:     Size  Location     Type
  4244 ;;		None
  4245 ;; Return value:  Size  Location     Type
  4246 ;;                  1    wreg      void 
  4247 ;; Registers used:
  4248 ;;		wreg, status,2
  4249 ;; Tracked objects:
  4250 ;;		On entry : 0/0
  4251 ;;		On exit  : 0/0
  4252 ;;		Unchanged: 0/0
  4253 ;; Data sizes:     COMMON   BANK0   BANK1   BANK2
  4254 ;;      Params:         0       0       0       0
  4255 ;;      Locals:         0       0       0       0
  4256 ;;      Temps:          0       0       0       0
  4257 ;;      Totals:         0       0       0       0
  4258 ;;Total ram usage:        0 bytes
  4259 ;; Hardware stack levels used:    1
  4260 ;; Hardware stack levels required when called:    3
  4261 ;; This function calls:
  4262 ;;		Nothing
  4263 ;; This function is called by:
  4264 ;;		_SYSTEM_Initialize
  4265 ;; This function uses a non-reentrant model
  4266 ;;
  4267                           
  4268                           
  4269                           ;psect for function _CLC2_Initialize
  4270  0124                     _CLC2_Initialize:	
  4271  0124                     l1078:	
  4272                           ;incstack = 0
  4273                           ; Regs used in _CLC2_Initialize: [wreg+status,2]
  4274                           
  4275                           
  4276                           ;mcc_generated_files/clc2.c: 63:     CLC2POL = 0x0E;
  4277  0124  300E               	movlw	14
  4278  0125  017C               	movlb	60	; select bank60
  4279  0126  009B               	movwf	27	;volatile
  4280                           
  4281                           ;mcc_generated_files/clc2.c: 65:     CLC2SEL0 = 0x02;
  4282  0127  3002               	movlw	2
  4283  0128  009C               	movwf	28	;volatile
  4284  0129                     l1080:	
  4285                           
  4286                           ;mcc_generated_files/clc2.c: 67:     CLC2SEL1 = 0x00;
  4287  0129  019D               	clrf	29	;volatile
  4288  012A                     l1082:	
  4289                           
  4290                           ;mcc_generated_files/clc2.c: 69:     CLC2SEL2 = 0x00;
  4291  012A  019E               	clrf	30	;volatile
  4292  012B                     l1084:	
  4293                           
  4294                           ;mcc_generated_files/clc2.c: 71:     CLC2SEL3 = 0x00;
  4295  012B  019F               	clrf	31	;volatile
  4296  012C                     l1086:	
  4297                           
  4298                           ;mcc_generated_files/clc2.c: 73:     CLC2GLS0 = 0x02;
  4299  012C  3002               	movlw	2
  4300  012D  00A0               	movwf	32	;volatile
  4301                           
  4302                           ;mcc_generated_files/clc2.c: 75:     CLC2GLS1 = 0x00;
  4303  012E  01A1               	clrf	33	;volatile
  4304                           
  4305                           ;mcc_generated_files/clc2.c: 77:     CLC2GLS2 = 0x00;
  4306  012F  01A2               	clrf	34	;volatile
  4307                           
  4308                           ;mcc_generated_files/clc2.c: 79:     CLC2GLS3 = 0x00;
  4309  0130  01A3               	clrf	35	;volatile
  4310  0131                     l1088:	
  4311                           
  4312                           ;mcc_generated_files/clc2.c: 81:     CLC2CON = 0x82;
  4313  0131  3082               	movlw	130
  4314  0132  009A               	movwf	26	;volatile
  4315  0133                     l328:	
  4316  0133  0008               	return
  4317  0134                     __end_of_CLC2_Initialize:	
  4318                           
  4319                           	psect	text13
  4320  0113                     __ptext13:	
  4321 ;; *************** function _CLC1_Initialize *****************
  4322 ;; Defined at:
  4323 ;;		line 58 in file "mcc_generated_files/clc1.c"
  4324 ;; Parameters:    Size  Location     Type
  4325 ;;		None
  4326 ;; Auto vars:     Size  Location     Type
  4327 ;;		None
  4328 ;; Return value:  Size  Location     Type
  4329 ;;                  1    wreg      void 
  4330 ;; Registers used:
  4331 ;;		wreg, status,2
  4332 ;; Tracked objects:
  4333 ;;		On entry : 0/0
  4334 ;;		On exit  : 0/0
  4335 ;;		Unchanged: 0/0
  4336 ;; Data sizes:     COMMON   BANK0   BANK1   BANK2
  4337 ;;      Params:         0       0       0       0
  4338 ;;      Locals:         0       0       0       0
  4339 ;;      Temps:          0       0       0       0
  4340 ;;      Totals:         0       0       0       0
  4341 ;;Total ram usage:        0 bytes
  4342 ;; Hardware stack levels used:    1
  4343 ;; Hardware stack levels required when called:    3
  4344 ;; This function calls:
  4345 ;;		Nothing
  4346 ;; This function is called by:
  4347 ;;		_SYSTEM_Initialize
  4348 ;; This function uses a non-reentrant model
  4349 ;;
  4350                           
  4351                           
  4352                           ;psect for function _CLC1_Initialize
  4353  0113                     _CLC1_Initialize:	
  4354  0113                     l1054:	
  4355                           ;incstack = 0
  4356                           ; Regs used in _CLC1_Initialize: [wreg+status,2]
  4357                           
  4358                           
  4359                           ;mcc_generated_files/clc1.c: 63:     CLC1POL = 0x00;
  4360  0113  017C               	movlb	60	; select bank60
  4361  0114  0191               	clrf	17	;volatile
  4362  0115                     l1056:	
  4363                           
  4364                           ;mcc_generated_files/clc1.c: 65:     CLC1SEL0 = 0x11;
  4365  0115  3011               	movlw	17
  4366  0116  0092               	movwf	18	;volatile
  4367  0117                     l1058:	
  4368                           
  4369                           ;mcc_generated_files/clc1.c: 67:     CLC1SEL1 = 0x15;
  4370  0117  3015               	movlw	21
  4371  0118  0093               	movwf	19	;volatile
  4372                           
  4373                           ;mcc_generated_files/clc1.c: 69:     CLC1SEL2 = 0x00;
  4374  0119  0194               	clrf	20	;volatile
  4375                           
  4376                           ;mcc_generated_files/clc1.c: 71:     CLC1SEL3 = 0x00;
  4377  011A  0195               	clrf	21	;volatile
  4378  011B                     l1060:	
  4379                           
  4380                           ;mcc_generated_files/clc1.c: 73:     CLC1GLS0 = 0x02;
  4381  011B  3002               	movlw	2
  4382  011C  0096               	movwf	22	;volatile
  4383  011D                     l1062:	
  4384                           
  4385                           ;mcc_generated_files/clc1.c: 75:     CLC1GLS1 = 0x08;
  4386  011D  3008               	movlw	8
  4387  011E  0097               	movwf	23	;volatile
  4388                           
  4389                           ;mcc_generated_files/clc1.c: 77:     CLC1GLS2 = 0x00;
  4390  011F  0198               	clrf	24	;volatile
  4391                           
  4392                           ;mcc_generated_files/clc1.c: 79:     CLC1GLS3 = 0x00;
  4393  0120  0199               	clrf	25	;volatile
  4394  0121                     l1064:	
  4395                           
  4396                           ;mcc_generated_files/clc1.c: 81:     CLC1CON = 0x80;
  4397  0121  3080               	movlw	128
  4398  0122  0090               	movwf	16	;volatile
  4399  0123                     l215:	
  4400  0123  0008               	return
  4401  0124                     __end_of_CLC1_Initialize:	
  4402                           
  4403                           	psect	text14
  4404  00D6                     __ptext14:	
  4405 ;; *************** function _PWM3_LoadDutyValue *****************
  4406 ;; Defined at:
  4407 ;;		line 72 in file "mcc_generated_files/pwm3.c"
  4408 ;; Parameters:    Size  Location     Type
  4409 ;;  dutyValue       2    2[COMMON] unsigned short 
  4410 ;; Auto vars:     Size  Location     Type
  4411 ;;		None
  4412 ;; Return value:  Size  Location     Type
  4413 ;;                  1    wreg      void 
  4414 ;; Registers used:
  4415 ;;		wreg, status,2, status,0
  4416 ;; Tracked objects:
  4417 ;;		On entry : 0/0
  4418 ;;		On exit  : 0/0
  4419 ;;		Unchanged: 0/0
  4420 ;; Data sizes:     COMMON   BANK0   BANK1   BANK2
  4421 ;;      Params:         2       0       0       0
  4422 ;;      Locals:         0       0       0       0
  4423 ;;      Temps:          2       0       0       0
  4424 ;;      Totals:         4       0       0       0
  4425 ;;Total ram usage:        4 bytes
  4426 ;; Hardware stack levels used:    1
  4427 ;; Hardware stack levels required when called:    3
  4428 ;; This function calls:
  4429 ;;		Nothing
  4430 ;; This function is called by:
  4431 ;;		_main
  4432 ;; This function uses a non-reentrant model
  4433 ;;
  4434                           
  4435                           
  4436                           ;psect for function _PWM3_LoadDutyValue
  4437  00D6                     _PWM3_LoadDutyValue:	
  4438  00D6                     l1320:	
  4439                           ;incstack = 0
  4440                           ; Regs used in _PWM3_LoadDutyValue: [wreg+status,2+status,0]
  4441                           
  4442                           
  4443                           ;mcc_generated_files/pwm3.c: 72:  void PWM3_LoadDutyValue(uint16_t dutyValue);mcc_genera
      +                          ted_files/pwm3.c: 73:  {;mcc_generated_files/pwm3.c: 75:      PWM3DCH = (dutyValue & 0x0
      +                          3FC)>>2;
  4444  00D6  0873               	movf	PWM3_LoadDutyValue@dutyValue+1,w
  4445  00D7  00F5               	movwf	??_PWM3_LoadDutyValue+1
  4446  00D8  0872               	movf	PWM3_LoadDutyValue@dutyValue,w
  4447  00D9  00F4               	movwf	??_PWM3_LoadDutyValue
  4448  00DA  36F5               	lsrf	??_PWM3_LoadDutyValue+1,f
  4449  00DB  0CF4               	rrf	??_PWM3_LoadDutyValue,f
  4450  00DC  36F5               	lsrf	??_PWM3_LoadDutyValue+1,f
  4451  00DD  0CF4               	rrf	??_PWM3_LoadDutyValue,f
  4452  00DE  0874               	movf	??_PWM3_LoadDutyValue,w
  4453  00DF  0146               	movlb	6	; select bank6
  4454  00E0  0095               	movwf	21	;volatile
  4455                           
  4456                           ;mcc_generated_files/pwm3.c: 78:      PWM3DCL = (dutyValue & 0x0003)<<6;
  4457  00E1  0872               	movf	PWM3_LoadDutyValue@dutyValue,w
  4458  00E2  3903               	andlw	3
  4459  00E3  00F4               	movwf	??_PWM3_LoadDutyValue
  4460  00E4  3005               	movlw	5
  4461  00E5                     u215:	
  4462  00E5  35F4               	lslf	??_PWM3_LoadDutyValue,f
  4463  00E6  3EFF               	addlw	-1
  4464  00E7  1D03               	skipz
  4465  00E8  28E5               	goto	u215
  4466  00E9  3574               	lslf	??_PWM3_LoadDutyValue,w
  4467  00EA  0094               	movwf	20	;volatile
  4468  00EB                     l12:	
  4469  00EB  0008               	return
  4470  00EC                     __end_of_PWM3_LoadDutyValue:	
  4471                           
  4472                           	psect	intentry
  4473  0004                     __pintentry:	
  4474 ;; *************** function _INTERRUPT_InterruptManager *****************
  4475 ;; Defined at:
  4476 ;;		line 52 in file "mcc_generated_files/interrupt_manager.c"
  4477 ;; Parameters:    Size  Location     Type
  4478 ;;		None
  4479 ;; Auto vars:     Size  Location     Type
  4480 ;;		None
  4481 ;; Return value:  Size  Location     Type
  4482 ;;                  1    wreg      void 
  4483 ;; Registers used:
  4484 ;;		wreg, status,2, status,0, pclath, cstack
  4485 ;; Tracked objects:
  4486 ;;		On entry : 0/0
  4487 ;;		On exit  : 0/0
  4488 ;;		Unchanged: 0/0
  4489 ;; Data sizes:     COMMON   BANK0   BANK1   BANK2
  4490 ;;      Params:         0       0       0       0
  4491 ;;      Locals:         0       0       0       0
  4492 ;;      Temps:          0       0       0       0
  4493 ;;      Totals:         0       0       0       0
  4494 ;;Total ram usage:        0 bytes
  4495 ;; Hardware stack levels used:    1
  4496 ;; Hardware stack levels required when called:    2
  4497 ;; This function calls:
  4498 ;;		Absolute function
  4499 ;;		_SPI1_Isr
  4500 ;;		_TMR0_ISR
  4501 ;;		_spi1InterruptHandler
  4502 ;; This function is called by:
  4503 ;;		Interrupt level 1
  4504 ;; This function uses a non-reentrant model
  4505 ;;
  4506                           
  4507  0004                     _INTERRUPT_InterruptManager:	
  4508                           
  4509                           ;incstack = 0
  4510  0004  147E               	bsf	int$flags,0	;set compiler interrupt flag (level 1)
  4511                           
  4512                           ; Regs used in _INTERRUPT_InterruptManager: [wreg+status,2+status,0+pclath+cstack]
  4513  0005  3180               	pagesel	$
  4514  0006                     i1l1348:	
  4515                           
  4516                           ;mcc_generated_files/interrupt_manager.c: 55:     if(PIE0bits.TMR0IE == 1 && PIR0bits.TM
      +                          R0IF == 1)
  4517  0006  014E               	movlb	14	; select bank14
  4518  0007  1E96               	btfss	22,5	;volatile
  4519  0008  280A               	goto	u23_21
  4520  0009  280B               	goto	u23_20
  4521  000A                     u23_21:	
  4522  000A  2813               	goto	i1l350
  4523  000B                     u23_20:	
  4524  000B                     i1l1350:	
  4525  000B  1E8C               	btfss	12,5	;volatile
  4526  000C  280E               	goto	u24_21
  4527  000D  280F               	goto	u24_20
  4528  000E                     u24_21:	
  4529  000E  2813               	goto	i1l350
  4530  000F                     u24_20:	
  4531  000F                     i1l1352:	
  4532                           
  4533                           ;mcc_generated_files/interrupt_manager.c: 56:     {;mcc_generated_files/interrupt_manage
      +                          r.c: 57:         TMR0_ISR();
  4534  000F  3181  2143  3180   	fcall	_TMR0_ISR
  4535                           
  4536                           ;mcc_generated_files/interrupt_manager.c: 58:     }
  4537  0012  2825               	goto	i1l356
  4538  0013                     i1l350:	
  4539                           ;mcc_generated_files/interrupt_manager.c: 59:     else if(INTCONbits.PEIE == 1)
  4540                           
  4541  0013  1F0B               	btfss	11,6	;volatile
  4542  0014  2816               	goto	u25_21
  4543  0015  2817               	goto	u25_20
  4544  0016                     u25_21:	
  4545  0016  2825               	goto	i1l356
  4546  0017                     u25_20:	
  4547  0017                     i1l1354:	
  4548                           
  4549                           ;mcc_generated_files/interrupt_manager.c: 60:     {;mcc_generated_files/interrupt_manage
      +                          r.c: 61:         if(PIE3bits.SSP1IE == 1 && PIR3bits.SSP1IF == 1)
  4550  0017  1C19               	btfss	25,0	;volatile
  4551  0018  281A               	goto	u26_21
  4552  0019  281B               	goto	u26_20
  4553  001A                     u26_21:	
  4554  001A  2825               	goto	i1l355
  4555  001B                     u26_20:	
  4556  001B                     i1l1356:	
  4557  001B  1C0F               	btfss	15,0	;volatile
  4558  001C  281E               	goto	u27_21
  4559  001D  281F               	goto	u27_20
  4560  001E                     u27_21:	
  4561  001E  2825               	goto	i1l355
  4562  001F                     u27_20:	
  4563  001F                     i1l1358:	
  4564                           
  4565                           ;mcc_generated_files/interrupt_manager.c: 62:         {;mcc_generated_files/interrupt_ma
      +                          nager.c: 63:             MSSP1_InterruptHandler();
  4566  001F  087A               	movf	_MSSP1_InterruptHandler+1,w
  4567  0020  008A               	movwf	10
  4568  0021  0879               	movf	_MSSP1_InterruptHandler,w
  4569  0022  000A               	callw
  4570  0023  3180               	pagesel	$
  4571                           
  4572                           ;mcc_generated_files/interrupt_manager.c: 64:         }
  4573  0024  2825               	goto	i1l356
  4574  0025                     i1l355:	
  4575                           ;mcc_generated_files/interrupt_manager.c: 71:     {;mcc_generated_files/interrupt_manage
      +                          r.c: 73:     }
  4576                           
  4577  0025                     i1l356:	
  4578  0025  107E               	bcf	int$flags,0	;clear compiler interrupt flag (level 1)
  4579  0026  0009               	retfie
  4580  0027                     __end_of_INTERRUPT_InterruptManager:	
  4581                           
  4582                           	psect	text16
  4583  0143                     __ptext16:	
  4584 ;; *************** function _TMR0_ISR *****************
  4585 ;; Defined at:
  4586 ;;		line 121 in file "mcc_generated_files/tmr0.c"
  4587 ;; Parameters:    Size  Location     Type
  4588 ;;		None
  4589 ;; Auto vars:     Size  Location     Type
  4590 ;;		None
  4591 ;; Return value:  Size  Location     Type
  4592 ;;                  1    wreg      void 
  4593 ;; Registers used:
  4594 ;;		wreg, status,2, status,0, pclath, cstack
  4595 ;; Tracked objects:
  4596 ;;		On entry : 0/0
  4597 ;;		On exit  : 0/0
  4598 ;;		Unchanged: 0/0
  4599 ;; Data sizes:     COMMON   BANK0   BANK1   BANK2
  4600 ;;      Params:         0       0       0       0
  4601 ;;      Locals:         0       0       0       0
  4602 ;;      Temps:          0       0       0       0
  4603 ;;      Totals:         0       0       0       0
  4604 ;;Total ram usage:        0 bytes
  4605 ;; Hardware stack levels used:    1
  4606 ;; Hardware stack levels required when called:    1
  4607 ;; This function calls:
  4608 ;;		Absolute function
  4609 ;;		_TMR0_DefaultInterruptHandler
  4610 ;;		_tmr0InterruptHandler
  4611 ;; This function is called by:
  4612 ;;		_INTERRUPT_InterruptManager
  4613 ;; This function uses a non-reentrant model
  4614 ;;
  4615                           
  4616                           
  4617                           ;psect for function _TMR0_ISR
  4618  0143                     _TMR0_ISR:	
  4619  0143                     i1l1342:	
  4620                           ;incstack = 0
  4621                           ; Regs used in _TMR0_ISR: [wreg+status,2+status,0+pclath+cstack]
  4622                           
  4623                           
  4624                           ;mcc_generated_files/tmr0.c: 124:     PIR0bits.TMR0IF = 0;
  4625  0143  014E               	movlb	14	; select bank14
  4626  0144  128C               	bcf	12,5	;volatile
  4627  0145                     i1l1344:	
  4628                           
  4629                           ;mcc_generated_files/tmr0.c: 125:     if(TMR0_InterruptHandler)
  4630  0145  0140               	movlb	0	; select bank0
  4631  0146  0820               	movf	_TMR0_InterruptHandler,w
  4632  0147  0421               	iorwf	_TMR0_InterruptHandler+1,w
  4633  0148  1903               	btfsc	3,2
  4634  0149  294B               	goto	u22_21
  4635  014A  294C               	goto	u22_20
  4636  014B                     u22_21:	
  4637  014B  2951               	goto	i1l446
  4638  014C                     u22_20:	
  4639  014C                     i1l1346:	
  4640                           
  4641                           ;mcc_generated_files/tmr0.c: 126:     {;mcc_generated_files/tmr0.c: 127:         TMR0_In
      +                          terruptHandler();
  4642  014C  0821               	movf	_TMR0_InterruptHandler+1,w
  4643  014D  008A               	movwf	10
  4644  014E  0820               	movf	_TMR0_InterruptHandler,w
  4645  014F  000A               	callw
  4646  0150  3181               	pagesel	$
  4647  0151                     i1l446:	
  4648  0151  0008               	return
  4649  0152                     __end_of_TMR0_ISR:	
  4650                           
  4651                           	psect	text17
  4652  0197                     __ptext17:	
  4653 ;; *************** function _TMR0_DefaultInterruptHandler *****************
  4654 ;; Defined at:
  4655 ;;		line 138 in file "mcc_generated_files/tmr0.c"
  4656 ;; Parameters:    Size  Location     Type
  4657 ;;		None
  4658 ;; Auto vars:     Size  Location     Type
  4659 ;;		None
  4660 ;; Return value:  Size  Location     Type
  4661 ;;                  1    wreg      void 
  4662 ;; Registers used:
  4663 ;;		None
  4664 ;; Tracked objects:
  4665 ;;		On entry : 0/0
  4666 ;;		On exit  : 0/0
  4667 ;;		Unchanged: 0/0
  4668 ;; Data sizes:     COMMON   BANK0   BANK1   BANK2
  4669 ;;      Params:         0       0       0       0
  4670 ;;      Locals:         0       0       0       0
  4671 ;;      Temps:          0       0       0       0
  4672 ;;      Totals:         0       0       0       0
  4673 ;;Total ram usage:        0 bytes
  4674 ;; Hardware stack levels used:    1
  4675 ;; This function calls:
  4676 ;;		Nothing
  4677 ;; This function is called by:
  4678 ;;		_TMR0_Initialize
  4679 ;;		_TMR0_ISR
  4680 ;; This function uses a non-reentrant model
  4681 ;;
  4682                           
  4683                           
  4684                           ;psect for function _TMR0_DefaultInterruptHandler
  4685  0197                     _TMR0_DefaultInterruptHandler:	
  4686  0197                     i1l452:	
  4687                           ;incstack = 0
  4688                           ; Regs used in _TMR0_DefaultInterruptHandler: []
  4689                           
  4690  0197  0008               	return
  4691  0198                     __end_of_TMR0_DefaultInterruptHandler:	
  4692                           
  4693                           	psect	text18
  4694  009E                     __ptext18:	
  4695 ;; *************** function _tmr0InterruptHandler *****************
  4696 ;; Defined at:
  4697 ;;		line 57 in file "main.c"
  4698 ;; Parameters:    Size  Location     Type
  4699 ;;		None
  4700 ;; Auto vars:     Size  Location     Type
  4701 ;;		None
  4702 ;; Return value:  Size  Location     Type
  4703 ;;                  1    wreg      void 
  4704 ;; Registers used:
  4705 ;;		wreg, status,2, status,0
  4706 ;; Tracked objects:
  4707 ;;		On entry : 0/0
  4708 ;;		On exit  : 0/0
  4709 ;;		Unchanged: 0/0
  4710 ;; Data sizes:     COMMON   BANK0   BANK1   BANK2
  4711 ;;      Params:         0       0       0       0
  4712 ;;      Locals:         0       0       0       0
  4713 ;;      Temps:          2       0       0       0
  4714 ;;      Totals:         2       0       0       0
  4715 ;;Total ram usage:        2 bytes
  4716 ;; Hardware stack levels used:    1
  4717 ;; This function calls:
  4718 ;;		Nothing
  4719 ;; This function is called by:
  4720 ;;		_main
  4721 ;;		_TMR0_ISR
  4722 ;; This function uses a non-reentrant model
  4723 ;;
  4724                           
  4725                           
  4726                           ;psect for function _tmr0InterruptHandler
  4727  009E                     _tmr0InterruptHandler:	
  4728  009E                     i1l1310:	
  4729                           ;incstack = 0
  4730                           ; Regs used in _tmr0InterruptHandler: [wreg+status,2+status,0]
  4731                           
  4732                           
  4733                           ;main.c: 58:     if (idleStart) {
  4734  009E  0878               	movf	_idleStart,w
  4735  009F  1903               	btfsc	3,2
  4736  00A0  28A2               	goto	u19_21
  4737  00A1  28A3               	goto	u19_20
  4738  00A2                     u19_21:	
  4739  00A2  28B5               	goto	i1l1316
  4740  00A3                     u19_20:	
  4741  00A3                     i1l1312:	
  4742                           
  4743                           ;main.c: 59:         PWM3DCH = ((counter++)>>6)&0x7F;
  4744  00A3  0877               	movf	_counter+1,w
  4745  00A4  00F1               	movwf	??_tmr0InterruptHandler+1
  4746  00A5  0876               	movf	_counter,w
  4747  00A6  00F0               	movwf	??_tmr0InterruptHandler
  4748  00A7  3006               	movlw	6
  4749  00A8                     u20_25:	
  4750  00A8  36F1               	lsrf	??_tmr0InterruptHandler+1,f
  4751  00A9  0CF0               	rrf	??_tmr0InterruptHandler,f
  4752  00AA  0B89               	decfsz	9,f
  4753  00AB  28A8               	goto	u20_25
  4754  00AC  0870               	movf	??_tmr0InterruptHandler,w
  4755  00AD  397F               	andlw	127
  4756  00AE  0146               	movlb	6	; select bank6
  4757  00AF  0095               	movwf	21	;volatile
  4758  00B0                     i1l1314:	
  4759  00B0  3001               	movlw	1
  4760  00B1  07F6               	addwf	_counter,f
  4761  00B2  3000               	movlw	0
  4762  00B3  3DF7               	addwfc	_counter+1,f
  4763                           
  4764                           ;main.c: 60:     } else {
  4765  00B4  28B8               	goto	i1l1318
  4766  00B5                     i1l1316:	
  4767                           
  4768                           ;main.c: 61:         PWM3DCH = brightness;
  4769  00B5  087B               	movf	_brightness,w
  4770  00B6  0146               	movlb	6	; select bank6
  4771  00B7  0095               	movwf	21	;volatile
  4772  00B8                     i1l1318:	
  4773                           
  4774                           ;main.c: 63:     PIR0bits.TMR0IF = 0;
  4775  00B8  014E               	movlb	14	; select bank14
  4776  00B9  128C               	bcf	12,5	;volatile
  4777  00BA                     i1l396:	
  4778  00BA  0008               	return
  4779  00BB                     __end_of_tmr0InterruptHandler:	
  4780                           
  4781                           	psect	text19
  4782  0160                     __ptext19:	
  4783 ;; *************** function _spi1InterruptHandler *****************
  4784 ;; Defined at:
  4785 ;;		line 50 in file "main.c"
  4786 ;; Parameters:    Size  Location     Type
  4787 ;;		None
  4788 ;; Auto vars:     Size  Location     Type
  4789 ;;		None
  4790 ;; Return value:  Size  Location     Type
  4791 ;;                  1    wreg      void 
  4792 ;; Registers used:
  4793 ;;		wreg, status,2
  4794 ;; Tracked objects:
  4795 ;;		On entry : 0/0
  4796 ;;		On exit  : 0/0
  4797 ;;		Unchanged: 0/0
  4798 ;; Data sizes:     COMMON   BANK0   BANK1   BANK2
  4799 ;;      Params:         0       0       0       0
  4800 ;;      Locals:         0       0       0       0
  4801 ;;      Temps:          1       0       0       0
  4802 ;;      Totals:         1       0       0       0
  4803 ;;Total ram usage:        1 bytes
  4804 ;; Hardware stack levels used:    1
  4805 ;; This function calls:
  4806 ;;		Nothing
  4807 ;; This function is called by:
  4808 ;;		_main
  4809 ;;		_SPI1_Isr
  4810 ;;		_INTERRUPT_InterruptManager
  4811 ;; This function uses a non-reentrant model
  4812 ;;
  4813                           
  4814                           
  4815                           ;psect for function _spi1InterruptHandler
  4816  0160                     _spi1InterruptHandler:	
  4817  0160                     i1l980:	
  4818                           ;incstack = 0
  4819                           ; Regs used in _spi1InterruptHandler: [wreg+status,2]
  4820                           
  4821                           
  4822                           ;main.c: 51:     idleStart = 0;
  4823  0160  01F8               	clrf	_idleStart
  4824  0161                     i1l982:	
  4825                           
  4826                           ;main.c: 52:     brightness = SSP1BUF;
  4827  0161  0143               	movlb	3	; select bank3
  4828  0162  080C               	movf	12,w	;volatile
  4829  0163  00F0               	movwf	??_spi1InterruptHandler
  4830  0164  0870               	movf	??_spi1InterruptHandler,w
  4831  0165  00FB               	movwf	_brightness
  4832  0166                     i1l984:	
  4833                           
  4834                           ;main.c: 53:     TMR0L = 0x00;
  4835  0166  014B               	movlb	11	; select bank11
  4836  0167  019C               	clrf	28	;volatile
  4837  0168                     i1l986:	
  4838                           
  4839                           ;main.c: 54:     PIR3bits.SSP1IF = 0;
  4840  0168  014E               	movlb	14	; select bank14
  4841  0169  100F               	bcf	15,0	;volatile
  4842  016A                     i1l391:	
  4843  016A  0008               	return
  4844  016B                     __end_of_spi1InterruptHandler:	
  4845                           
  4846                           	psect	text20
  4847  0100                     __ptext20:	
  4848 ;; *************** function _SPI1_Isr *****************
  4849 ;; Defined at:
  4850 ;;		line 148 in file "mcc_generated_files/spi1.c"
  4851 ;; Parameters:    Size  Location     Type
  4852 ;;		None
  4853 ;; Auto vars:     Size  Location     Type
  4854 ;;		None
  4855 ;; Return value:  Size  Location     Type
  4856 ;;                  1    wreg      void 
  4857 ;; Registers used:
  4858 ;;		wreg, status,2, status,0, pclath, cstack
  4859 ;; Tracked objects:
  4860 ;;		On entry : 0/0
  4861 ;;		On exit  : 0/0
  4862 ;;		Unchanged: 0/0
  4863 ;; Data sizes:     COMMON   BANK0   BANK1   BANK2
  4864 ;;      Params:         0       0       0       0
  4865 ;;      Locals:         0       0       0       0
  4866 ;;      Temps:          0       0       0       0
  4867 ;;      Totals:         0       0       0       0
  4868 ;;Total ram usage:        0 bytes
  4869 ;; Hardware stack levels used:    1
  4870 ;; Hardware stack levels required when called:    1
  4871 ;; This function calls:
  4872 ;;		Absolute function
  4873 ;;		_SPI1_Isr
  4874 ;;		_spi1InterruptHandler
  4875 ;; This function is called by:
  4876 ;;		_SPI1_Initialize
  4877 ;;		_INTERRUPT_InterruptManager
  4878 ;; This function uses a non-reentrant model
  4879 ;;
  4880                           
  4881                           
  4882                           ;psect for function _SPI1_Isr
  4883  0100                     _SPI1_Isr:	
  4884  0100                     i1l1102:	
  4885                           ;incstack = 0
  4886                           ; Regs used in _SPI1_Isr: [wreg+status,2+status,0+pclath+cstack]
  4887                           
  4888                           
  4889                           ;mcc_generated_files/spi1.c: 150:     if(PIR3bits.SSP1IF == 1){
  4890  0100  014E               	movlb	14	; select bank14
  4891  0101  1C0F               	btfss	15,0	;volatile
  4892  0102  2904               	goto	u1_21
  4893  0103  2905               	goto	u1_20
  4894  0104                     u1_21:	
  4895  0104  2912               	goto	i1l300
  4896  0105                     u1_20:	
  4897  0105                     i1l1104:	
  4898                           
  4899                           ;mcc_generated_files/spi1.c: 151:         if(MSSP1_InterruptHandler){
  4900  0105  0879               	movf	_MSSP1_InterruptHandler,w
  4901  0106  047A               	iorwf	_MSSP1_InterruptHandler+1,w
  4902  0107  1903               	btfsc	3,2
  4903  0108  290A               	goto	u2_21
  4904  0109  290B               	goto	u2_20
  4905  010A                     u2_21:	
  4906  010A  2910               	goto	i1l1108
  4907  010B                     u2_20:	
  4908  010B                     i1l1106:	
  4909                           
  4910                           ;mcc_generated_files/spi1.c: 152:             MSSP1_InterruptHandler();
  4911  010B  087A               	movf	_MSSP1_InterruptHandler+1,w
  4912  010C  008A               	movwf	10
  4913  010D  0879               	movf	_MSSP1_InterruptHandler,w
  4914  010E  000A               	callw
  4915  010F  3181               	pagesel	$
  4916  0110                     i1l1108:	
  4917                           
  4918                           ;mcc_generated_files/spi1.c: 154:         PIR3bits.SSP1IF= 0;
  4919  0110  014E               	movlb	14	; select bank14
  4920  0111  100F               	bcf	15,0	;volatile
  4921  0112                     i1l300:	
  4922  0112  0008               	return
  4923  0113                     __end_of_SPI1_Isr:	
  4924  007E                     btemp	set	126	;btemp
  4925  007E                     int$flags	set	126
  4926  007E                     wtemp0	set	126


Data Sizes:
    Strings     0
    Constant    4
    Data        3
    BSS         1
    Persistent  36
    Stack       0

Auto Spaces:
    Space          Size  Autos    Used
    COMMON           14      6      12
    BANK0            80      2       4
    BANK1            80      0       0
    BANK2            80      0       0

Pointer List with Targets:

    TMR0_SetInterruptHandler@InterruptHandler	PTR FTN()void  size(2) Largest target is 1
		 -> TMR0_DefaultInterruptHandler(), tmr0InterruptHandler(), 

    TMR0_InterruptHandler	PTR FTN()void  size(2) Largest target is 1
		 -> TMR0_DefaultInterruptHandler(), tmr0InterruptHandler(), Absolute function(), 

    SPI1_SetInterruptHandler@handler	PTR FTN()void  size(2) Largest target is 1
		 -> spi1InterruptHandler(), SPI1_Isr(), 

    MSSP1_InterruptHandler	PTR FTN()void  size(2) Largest target is 1
		 -> spi1InterruptHandler(), Absolute function(), SPI1_Isr(), 


Critical Paths under _main in COMMON

    _main->_PWM3_LoadDutyValue
    _TMR0_Initialize->_TMR0_SetInterruptHandler
    _SPI1_Initialize->_SPI1_SetInterruptHandler

Critical Paths under _INTERRUPT_InterruptManager in COMMON

    _TMR0_ISR->_tmr0InterruptHandler

Critical Paths under _main in BANK0

    None.

Critical Paths under _INTERRUPT_InterruptManager in BANK0

    None.

Critical Paths under _main in BANK1

    None.

Critical Paths under _INTERRUPT_InterruptManager in BANK1

    None.

Critical Paths under _main in BANK2

    None.

Critical Paths under _INTERRUPT_InterruptManager in BANK2

    None.

Call Graph Tables:

 ---------------------------------------------------------------------------------
 (Depth) Function   	        Calls       Base Space   Used Autos Params    Refs
 ---------------------------------------------------------------------------------
 (0) _main                                                 2     2      0     816
                                              0 BANK0      2     2      0
                 _PWM3_LoadDutyValue
           _SPI1_SetInterruptHandler
                  _SYSTEM_Initialize
           _TMR0_SetInterruptHandler
 ---------------------------------------------------------------------------------
 (1) _SYSTEM_Initialize                                    0     0      0     348
                    _CLC1_Initialize
                    _CLC2_Initialize
                    _NCO1_Initialize
              _OSCILLATOR_Initialize
             _PIN_MANAGER_Initialize
                     _PMD_Initialize
                    _PWM3_Initialize
                    _SPI1_Initialize
                    _TMR0_Initialize
                    _TMR2_Initialize
 ---------------------------------------------------------------------------------
 (2) _TMR2_Initialize                                      0     0      0       0
 ---------------------------------------------------------------------------------
 (2) _TMR0_Initialize                                      0     0      0     174
           _TMR0_SetInterruptHandler
 ---------------------------------------------------------------------------------
 (1) _TMR0_SetInterruptHandler                             2     0      2     174
                                              2 COMMON     2     0      2
 ---------------------------------------------------------------------------------
 (2) _SPI1_Initialize                                      0     0      0     174
           _SPI1_SetInterruptHandler
 ---------------------------------------------------------------------------------
 (3) _SPI1_SetInterruptHandler                             2     0      2     174
                                              2 COMMON     2     0      2
 ---------------------------------------------------------------------------------
 (2) _PWM3_Initialize                                      0     0      0       0
 ---------------------------------------------------------------------------------
 (2) _PMD_Initialize                                       0     0      0       0
 ---------------------------------------------------------------------------------
 (2) _PIN_MANAGER_Initialize                               0     0      0       0
 ---------------------------------------------------------------------------------
 (2) _OSCILLATOR_Initialize                                0     0      0       0
 ---------------------------------------------------------------------------------
 (2) _NCO1_Initialize                                      0     0      0       0
 ---------------------------------------------------------------------------------
 (2) _CLC2_Initialize                                      0     0      0       0
 ---------------------------------------------------------------------------------
 (2) _CLC1_Initialize                                      0     0      0       0
 ---------------------------------------------------------------------------------
 (1) _PWM3_LoadDutyValue                                   4     2      2     120
                                              2 COMMON     4     2      2
 ---------------------------------------------------------------------------------
 Estimated maximum stack depth 3
 ---------------------------------------------------------------------------------
 (Depth) Function   	        Calls       Base Space   Used Autos Params    Refs
 ---------------------------------------------------------------------------------
 (4) _INTERRUPT_InterruptManager                           0     0      0       0
                   Absolute function *
                           _SPI1_Isr *
                           _TMR0_ISR
               _spi1InterruptHandler *
 ---------------------------------------------------------------------------------
 (5) _TMR0_ISR                                             0     0      0       0
                   Absolute function *
       _TMR0_DefaultInterruptHandler *
               _tmr0InterruptHandler *
 ---------------------------------------------------------------------------------
 (6) _tmr0InterruptHandler                                 2     2      0       0
                                              0 COMMON     2     2      0
 ---------------------------------------------------------------------------------
 (6) _TMR0_DefaultInterruptHandler                         0     0      0       0
 ---------------------------------------------------------------------------------
 (5) _SPI1_Isr                                             0     0      0       0
                   Absolute function *
                           _SPI1_Isr *
               _spi1InterruptHandler *
 ---------------------------------------------------------------------------------
 (5) _spi1InterruptHandler                                 1     1      0       0
                                              0 COMMON     1     1      0
 ---------------------------------------------------------------------------------
 (5) _SPI1_Isr                                             0     0      0       0
                   Absolute function *
                           _SPI1_Isr *
               _spi1InterruptHandler *
 ---------------------------------------------------------------------------------
 (6) Absolute function(Fake)                               0     0      0       0
 ---------------------------------------------------------------------------------
 Estimated maximum stack depth 6
 ---------------------------------------------------------------------------------

 Call Graph Graphs:

 _main (ROOT)
   _PWM3_LoadDutyValue
   _SPI1_SetInterruptHandler
   _SYSTEM_Initialize
     _CLC1_Initialize
     _CLC2_Initialize
     _NCO1_Initialize
     _OSCILLATOR_Initialize
     _PIN_MANAGER_Initialize
     _PMD_Initialize
     _PWM3_Initialize
     _SPI1_Initialize
       _SPI1_SetInterruptHandler
     _TMR0_Initialize
       _TMR0_SetInterruptHandler
     _TMR2_Initialize
   _TMR0_SetInterruptHandler

 _INTERRUPT_InterruptManager (ROOT)
   Absolute function(Fake) *
   _SPI1_Isr *
     Absolute function(Fake) *
     _spi1InterruptHandler *
   _TMR0_ISR *
     Absolute function(Fake) *
     _TMR0_DefaultInterruptHandler *
     _tmr0InterruptHandler *
   _spi1InterruptHandler *

 Address spaces:
Name               Size   Autos  Total    Cost      Usage
BIGRAM              F0      0       0       0        0.0%
NULL                 0      0       0       0        0.0%
CODE                 0      0       0       0        0.0%
BITCOMMON            E      0       0       1        0.0%
BITSFR0              0      0       0       1        0.0%
SFR0                 0      0       0       1        0.0%
COMMON               E      6       C       2       85.7%
BITSFR1              0      0       0       2        0.0%
SFR1                 0      0       0       2        0.0%
BITSFR2              0      0       0       3        0.0%
SFR2                 0      0       0       3        0.0%
STACK                0      0       0       3        0.0%
BITBANK0            50      0       0       4        0.0%
BITSFR3              0      0       0       4        0.0%
SFR3                 0      0       0       4        0.0%
BANK0               50      2       4       5        5.0%
BITSFR4              0      0       0       5        0.0%
SFR4                 0      0       0       5        0.0%
BITBANK1            50      0       0       6        0.0%
BITSFR5              0      0       0       6        0.0%
SFR5                 0      0       0       6        0.0%
BANK1               50      0       0       7        0.0%
BITSFR6              0      0       0       7        0.0%
SFR6                 0      0       0       7        0.0%
BITBANK2            50      0       0       8        0.0%
BITSFR7              0      0       0       8        0.0%
SFR7                 0      0       0       8        0.0%
BANK2               50      0       0       9        0.0%
BITSFR8              0      0       0       9        0.0%
SFR8                 0      0       0       9        0.0%
BITSFR9              0      0       0      10        0.0%
SFR9                 0      0       0      10        0.0%
ABS                  0      0      10      10        0.0%
BITSFR10             0      0       0      11        0.0%
SFR10                0      0       0      11        0.0%
DATA                 0      0      10      11        0.0%
BITSFR11             0      0       0      12        0.0%
SFR11                0      0       0      12        0.0%
BITSFR12             0      0       0      13        0.0%
SFR12                0      0       0      13        0.0%
BITSFR13             0      0       0      14        0.0%
SFR13                0      0       0      14        0.0%
BITSFR14             0      0       0      15        0.0%
SFR14                0      0       0      15        0.0%
BITSFR15             0      0       0      16        0.0%
SFR15                0      0       0      16        0.0%
BITSFR16             0      0       0      17        0.0%
SFR16                0      0       0      17        0.0%
BITSFR17             0      0       0      18        0.0%
SFR17                0      0       0      18        0.0%
BITSFR18             0      0       0      19        0.0%
SFR18                0      0       0      19        0.0%
BITSFR19             0      0       0      20        0.0%
SFR19                0      0       0      20        0.0%
BITSFR20             0      0       0      21        0.0%
SFR20                0      0       0      21        0.0%
BITSFR21             0      0       0      22        0.0%
SFR21                0      0       0      22        0.0%
BITSFR22             0      0       0      23        0.0%
SFR22                0      0       0      23        0.0%
BITSFR23             0      0       0      24        0.0%
SFR23                0      0       0      24        0.0%
BITSFR24             0      0       0      25        0.0%
SFR24                0      0       0      25        0.0%
BITSFR25             0      0       0      26        0.0%
SFR25                0      0       0      26        0.0%
BITSFR26             0      0       0      27        0.0%
SFR26                0      0       0      27        0.0%
BITSFR27             0      0       0      28        0.0%
SFR27                0      0       0      28        0.0%
BITSFR28             0      0       0      29        0.0%
SFR28                0      0       0      29        0.0%
BITSFR29             0      0       0      30        0.0%
SFR29                0      0       0      30        0.0%
BITSFR30             0      0       0      31        0.0%
SFR30                0      0       0      31        0.0%
BITSFR31             0      0       0      32        0.0%
SFR31                0      0       0      32        0.0%
BITSFR32             0      0       0      33        0.0%
SFR32                0      0       0      33        0.0%
BITSFR33             0      0       0      34        0.0%
SFR33                0      0       0      34        0.0%
BITSFR34             0      0       0      35        0.0%
SFR34                0      0       0      35        0.0%
BITSFR35             0      0       0      36        0.0%
SFR35                0      0       0      36        0.0%
BITSFR36             0      0       0      37        0.0%
SFR36                0      0       0      37        0.0%
BITSFR37             0      0       0      38        0.0%
SFR37                0      0       0      38        0.0%
BITSFR38             0      0       0      39        0.0%
SFR38                0      0       0      39        0.0%
BITSFR39             0      0       0      40        0.0%
SFR39                0      0       0      40        0.0%
BITSFR40             0      0       0      41        0.0%
SFR40                0      0       0      41        0.0%
BITSFR41             0      0       0      42        0.0%
SFR41                0      0       0      42        0.0%
BITSFR42             0      0       0      43        0.0%
SFR42                0      0       0      43        0.0%
BITSFR43             0      0       0      44        0.0%
SFR43                0      0       0      44        0.0%
BITSFR44             0      0       0      45        0.0%
SFR44                0      0       0      45        0.0%
BITSFR45             0      0       0      46        0.0%
SFR45                0      0       0      46        0.0%
BITSFR46             0      0       0      47        0.0%
SFR46                0      0       0      47        0.0%
BITSFR47             0      0       0      48        0.0%
SFR47                0      0       0      48        0.0%
BITSFR48             0      0       0      49        0.0%
SFR48                0      0       0      49        0.0%
BITSFR49             0      0       0      50        0.0%
SFR49                0      0       0      50        0.0%
BITSFR50             0      0       0      51        0.0%
SFR50                0      0       0      51        0.0%
BITSFR51             0      0       0      52        0.0%
SFR51                0      0       0      52        0.0%
BITSFR52             0      0       0      53        0.0%
SFR52                0      0       0      53        0.0%
BITSFR53             0      0       0      54        0.0%
SFR53                0      0       0      54        0.0%
BITSFR54             0      0       0      55        0.0%
SFR54                0      0       0      55        0.0%
BITSFR55             0      0       0      56        0.0%
SFR55                0      0       0      56        0.0%
BITSFR56             0      0       0      57        0.0%
SFR56                0      0       0      57        0.0%
BITSFR57             0      0       0      58        0.0%
SFR57                0      0       0      58        0.0%
BITSFR58             0      0       0      59        0.0%
SFR58                0      0       0      59        0.0%
BITSFR59             0      0       0      60        0.0%
SFR59                0      0       0      60        0.0%
BITSFR60             0      0       0      61        0.0%
SFR60                0      0       0      61        0.0%
BITSFR61             0      0       0      62        0.0%
SFR61                0      0       0      62        0.0%
BITSFR62             0      0       0      63        0.0%
SFR62                0      0       0      63        0.0%
BITSFR63             0      0       0      64        0.0%
SFR63                0      0       0      64        0.0%


Microchip Technology PIC Macro Assembler V2.10 build 88905656 
Symbol Table                                                                                   Sun May 31 15:38:26 2020

                                       l9 017C                               __CFG_CP$OFF 0000  
                                      l12 00EB                                        l39 015F  
                                     l131 0174                                       l134 0184  
                                     l215 0123                                       l303 018F  
                                     l128 007F                                       l155 0142  
                                     l255 009D                                       l328 0133  
                                     l187 00D5                                       l427 00FF  
                                     l449 018A                                       l990 0175  
                                     l992 0152                                       l994 0155  
                                     l996 0156                                       l998 0159  
                                     u215 00E5                                       _PR2 028D  
                                     u287 0059                   __size_of_PMD_Initialize 0008  
                         _TMR2_Initialize 0152                              __CFG_BORV$LO 0000  
                       ??_CLC2_Initialize 0072                                       wreg 0009  
                           __CFG_BBEN$OFF 0000                              __CFG_LVP$OFF 0000  
                            __CFG_ZCD$OFF 0000                                      l1000 015A  
                                    l1002 015C                                      l1020 00BD  
                                    l1004 017D                                      l1030 00C4  
                                    l1022 00BF                                      l1040 00D0  
                                    l1032 00C6                                      l1024 00C1  
                                    l1050 0172                                      l1042 00D2  
                                    l1034 00C9                                      l1026 00C2  
                                    l1018 00BB                                      l1060 011B  
                                    l1052 0173                                      l1044 016B  
                                    l1036 00CB                                      l1028 00C3  
                                    l1300 00F1                                      l1062 011D  
                                    l1054 0113                                      l1070 013A  
                                    l1046 016E                                      l1038 00CE  
                                    l1302 00F2                                      l1320 00D6  
                                    l1064 0121                                      l1056 0115  
                                    l1080 0129                                      l1072 013B  
                                    l1048 016F                                      l1304 00F4  
                                    l1058 0117                                      l1082 012A  
                                    l1074 013C                                      l1066 0134  
                                    l1306 00F5                                      l1330 006D  
                                    l1322 0061                                      l1084 012B  
                                    l1076 0141                                      l1068 0139  
                                    l1308 00FC                                      l1340 007C  
                                    l1332 0070                                      l1324 0064  
                                    l1086 012C                                      l1078 0124  
                                    l1334 0073                                      l1326 0067  
                                    l1088 0131                                      l1336 0076  
                                    l1328 006A                                      l1282 018B  
                                    l1290 0090                                      l1338 0079  
                                    l1370 0038                                      l1292 0092  
                                    l1284 0185                                      l1372 003B  
                                    l1294 0099                                      l1286 0080  
                                    l1374 003C                                      l1296 009B  
                                    l1288 008F                                      l1376 0044  
                                    l1298 00EC                                      l1378 0053  
                                    _LATA 0018                                      _T2PR 028D  
                                    _PMD0 0796                                      _PMD1 0797  
                                    _PMD2 0798                                      _PMD3 0799  
                                    _PMD4 079A                                      _PMD5 079B  
                                    _TMR2 028C                                      _WPUA 1F39  
                                    u1_20 0105                                      u1_21 0104  
                                    u2_20 010B                                      u2_21 010A  
                           __CFG_FCMEN$ON 0000                                      _main 0038  
                                    btemp 007E                             __CFG_BOREN$ON 0000  
                                    start 0027                     ?_tmr0InterruptHandler 0070  
                        ?_NCO1_Initialize 0070                             __CFG_CSWEN$ON 0000  
                 __end_of_TMR0_Initialize 0100            ??_TMR0_DefaultInterruptHandler 0070  
          __size_of_OSCILLATOR_Initialize 000A             __end_of_OSCILLATOR_Initialize 0175  
                                   ?_main 0070                             __CFG_WDTE$OFF 0000  
                                   _T2CON 028E                                     _T2HLT 028F  
                                   i1l300 0112                                     _T2TMR 028C  
                                   _T2RST 0291                                     i1l350 0013  
                                   i1l355 0025                                     i1l452 0197  
                                   i1l356 0025                                     i1l446 0151  
                                   i1l391 016A                                     i1l396 00BA  
                                   i1l980 0160                                     i1l982 0161  
                                   i1l984 0166                                     i1l986 0168  
                                   _OSCEN 0891                                     u20_25 00A8  
                                   u22_20 014C                                     u22_21 014B  
                                   u23_20 000B                                     u23_21 000A  
                                   u24_20 000F                                     u24_21 000E  
                                   u25_20 0017                                     _TMR0H 059D  
                                   u25_21 0016                                     _TMR0L 059C  
                                   u26_20 001B                                     u26_21 001A  
                                   u19_20 00A3                                     u27_20 001F  
                                   u19_21 00A2                                     u27_21 001E  
                                   _TRISA 0012         __size_of_TMR0_SetInterruptHandler 0006  
               ?_TMR0_SetInterruptHandler 0072                          __end_of_SPI1_Isr 0113  
                        __end_of_TMR0_ISR 0152                             __CFG_WRTB$OFF 0000  
                           __CFG_WRTC$OFF 0000                    ??_spi1InterruptHandler 0070  
                 __end_of_PWM3_Initialize 017D                                     pclath 000A  
                                   status 0003                                     wtemp0 007E  
                __size_of_SPI1_Initialize 001E                            __CFG_MCLRE$OFF 0000  
                         __initialization 0028                              __end_of_main 0061  
                          __CFG_SAFEN$OFF 0000                  _SPI1_SetInterruptHandler 018B  
                 __end_of_TMR2_Initialize 0160               ?_INTERRUPT_InterruptManager 0070  
                                  ??_main 0022                                    _ANSELA 1F38  
                                  _T0CON0 059E                                    _T0CON1 059F  
                                  _RA0PPS 1F10                                    _RA1PPS 1F11  
                                  _RA2PPS 1F12                                    _RA5PPS 1F15  
                                  i1l1102 0100                                    i1l1104 0105  
                                  i1l1106 010B                                    i1l1108 0110  
                                  i1l1310 009E                                    i1l1312 00A3  
                                  i1l1314 00B0                                    i1l1316 00B5  
                                  i1l1318 00B8                                    i1l1342 0143  
                                  i1l1350 000B                                    i1l1344 0145  
                                  i1l1352 000F                                    _ODCONA 1F3A  
                                  i1l1346 014C                                    i1l1354 0017  
                                  i1l1356 001B                                    i1l1348 0006  
                                  i1l1358 001F                            __CFG_WDTCCS$SC 0000  
                                  _INLVLA 1F3C                                    _OSCFRQ 0893  
                  ??_tmr0InterruptHandler 0070                            __CFG_PWRTE$OFF 0000  
             __size_of_PWM3_LoadDutyValue 0016                            __CFG_STVREN$ON 0000  
                        ?_TMR0_Initialize 0070                            _PMD_Initialize 017D  
                            __pdataCOMMON 0076  TMR0_SetInterruptHandler@InterruptHandler 0072  
                         _CLC1_Initialize 0113                          ?_PWM3_Initialize 0070  
                       _SYSTEM_Initialize 0061                   __end_of__initialization 0035  
                      ?_SYSTEM_Initialize 0070                            __pcstackCOMMON 0070  
                               ?_SPI1_Isr 0070                       ??_SYSTEM_Initialize 0074  
                               ?_TMR0_ISR 0070                           _CLC2_Initialize 0124  
                       ??_SPI1_Initialize 0074                          ?_TMR2_Initialize 0070  
                  __end_of_PMD_Initialize 0185                        _spi1_configuration 0190  
               __end_of_SYSTEM_Initialize 0080                                __pnvCOMMON 0079  
                              __pmaintext 0038          __end_of_TMR0_SetInterruptHandler 018B  
                              ??_SPI1_Isr 0070                                ??_TMR0_ISR 0072  
                              __pintentry 0004                                   _CLC1CON 1E10  
                                 _CLC2CON 1E1A                                   _CLC1POL 1E11  
                                 _CLC2POL 1E1B                           ?_PMD_Initialize 0070  
                     __CFG_RSTOSC$HFINT32 0000                                   _NCO1CLK 0593  
                                 _NCO1CON 0592                   __end_of_CLC1_Initialize 0124  
                                 _OSCCON1 088D                                   _OSCCON3 088F  
                              _brightness 007B                                   _OSCSTAT 0890  
                                 _OSCTUNE 0892                                   _PWM3DCH 0315  
                                 _PWM3DCL 0314                                   _PWM3CON 0316  
                                 _SSP1ADD 018D                                   _SLRCONA 1F3B  
                                 _SSP1BUF 018C                   __end_of_CLC2_Initialize 0134  
              ??_SPI1_SetInterruptHandler 0074                                 _CLCIN2PPS 1EBD  
                __size_of_NCO1_Initialize 000F                                   __ptext1 0061  
                                 __ptext2 0152                                   __ptext3 00EC  
                                 __ptext4 0185                                   __ptext5 0080  
                                 __ptext6 018B                                   __ptext7 0175  
                                 __ptext8 017D                                   __ptext9 00BB  
                         __CFG_WRTAPP$OFF 0000                                   _counter 0076  
                   _OSCILLATOR_Initialize 016B                                 _T2CONbits 028E  
                ??_PIN_MANAGER_Initialize 0072                                 _T2HLTbits 028F  
                         __CFG_WRTSAF$OFF 0000                __size_of_SYSTEM_Initialize 001F  
                    end_of_initialization 0035                                 _T2RSTbits 0291  
           __size_of_spi1InterruptHandler 000B                     __CFG_WDTCPS$WDTCPS_31 0000  
                _TMR0_SetInterruptHandler 0185                          ?_CLC1_Initialize 0070  
                               _TRISAbits 0012                          __CFG_FEXTOSC$OFF 0000  
                         _SPI1_Initialize 0080                          ?_CLC2_Initialize 0070  
              __end_of_PWM3_LoadDutyValue 00EC             __size_of_tmr0InterruptHandler 001D  
                             _CLC1CONbits 1E10                               _CLC2CONbits 1E1A  
                       __size_of_SPI1_Isr 0013                             __pidataCOMMON 0194  
                       __size_of_TMR0_ISR 000F                    ?_OSCILLATOR_Initialize 0070  
                     start_initialization 0028                  __size_of_TMR0_Initialize 0014  
         __size_of_PIN_MANAGER_Initialize 001B                         ??_NCO1_Initialize 0072  
                        __CFG_LPBOREN$OFF 0000                  __size_of_PWM3_Initialize 0008  
                        ??_PMD_Initialize 0072                               __pbssCOMMON 007B  
                               ___latbits 0000                             __pcstackBANK0 0022  
                __size_of_TMR2_Initialize 000E                   __end_of_SPI1_Initialize 009E  
                   _TMR0_InterruptHandler 0020                                 __pnvBANK0 0020  
                  _PIN_MANAGER_Initialize 00BB                    _MSSP1_InterruptHandler 0079  
                               _idleStart 0078                          __CFG_PPS1WAY$OFF 0000  
            ??_INTERRUPT_InterruptManager 0072                                  _CLC1GLS0 1E16  
                                _CLC1GLS1 1E17                                  _CLC1GLS2 1E18  
                                _CLC1GLS3 1E19                                  _CLC2GLS0 1E20  
                                _CLC2GLS1 1E21                                  _CLC2GLS2 1E22  
                                _CLC2GLS3 1E23                                  _CLC1SEL0 1E12  
                                _CLC1SEL1 1E13                                  _CLC1SEL2 1E14  
                                _CLC1SEL3 1E15                                  _CLC2SEL0 1E1C  
                                _CLC2SEL1 1E1D                                  _CLC2SEL2 1E1E  
                                _CLC2SEL3 1E1F                               _NCO1CONbits 0592  
                                _T2CLKCON 0290                                  _NCO1ACCH 058D  
                                _NCO1ACCL 058C                                  _NCO1ACCU 058E  
                                _NCO1INCH 0590                                  _NCO1INCL 058F  
                                _NCO1INCU 0591                         ??_TMR0_Initialize 0074  
                                _PIE0bits 0716                                  _PIE3bits 0719  
     __size_of_INTERRUPT_InterruptManager 0023                ??_TMR0_SetInterruptHandler 0074  
                                _PIR0bits 070C                                  _PIR3bits 070F  
                                _PIR4bits 0710                         __CFG_BBSIZE$BB512 0000  
                                _SPI1_Isr 0100                                  _SSP1CON1 0190  
                                _SSP1CON2 0191                                  _TMR0_ISR 0143  
                                _SSP1STAT 018F              __end_of_spi1InterruptHandler 016B  
                       ??_PWM3_Initialize 0072         __size_of_SPI1_SetInterruptHandler 0005  
               ?_SPI1_SetInterruptHandler 0072                          ?_SPI1_Initialize 0070  
                       ??_TMR2_Initialize 0072           SPI1_SetInterruptHandler@handler 0072  
                 ??_OSCILLATOR_Initialize 0072                           _NCO1_Initialize 0134  
                      _PWM3_LoadDutyValue 00D6              __end_of_tmr0InterruptHandler 00BB  
                              _T0CON0bits 059E                                  __ptext10 016B  
                                __ptext11 0134                                  __ptext20 0100  
                                __ptext12 0124                                  __ptext13 0113  
                                __ptext14 00D6                                  __ptext16 0143  
                                __ptext17 0197                                  __ptext18 009E  
                                __ptext19 0160                       ?_PWM3_LoadDutyValue 0072  
                            _SSP1CON1bits 0190                  __size_of_CLC1_Initialize 0011  
                           __size_of_main 0029      __end_of_TMR0_DefaultInterruptHandler 0198  
   __size_of_TMR0_DefaultInterruptHandler 0001              _TMR0_DefaultInterruptHandler 0197  
                    __CFG_WDTCWS$WDTCWS_7 0000                      ??_PWM3_LoadDutyValue 0074  
                                int$flags 007E        __end_of_INTERRUPT_InterruptManager 0027  
              _INTERRUPT_InterruptManager 0004                  __size_of_CLC2_Initialize 0010  
                              _INTCONbits 000B                                  intlevel1 0000  
                    _spi1InterruptHandler 0160                   ?_PIN_MANAGER_Initialize 0070  
                       __CFG_CLKOUTEN$OFF 0000                   __end_of_NCO1_Initialize 0143  
           ?_TMR0_DefaultInterruptHandler 0070               PWM3_LoadDutyValue@dutyValue 0072  
                           __pstringtext1 0190                                _SSP1DATPPS 1EC6  
                              _SSP1CLKPPS 1EC5                           _TMR0_Initialize 00EC  
                   ?_spi1InterruptHandler 0070            __end_of_PIN_MANAGER_Initialize 00D6  
                         _PWM3_Initialize 0175                         ??_CLC1_Initialize 0072  
              __end_of_spi1_configuration 0194          __end_of_SPI1_SetInterruptHandler 0190  
                    _tmr0InterruptHandler 009E  
